

Microchip MPLAB XC8 Assembler V2.36 build 20220127204148 
                                                                                               Wed Apr 19 21:28:45 2023

Microchip MPLAB XC8 C Compiler v2.36 (Free license) build 20220127204148 Og1 
     1                           	processor	16F887
     2                           	pagewidth 120
     3                           	opt	flic
     4                           	psect	strings,global,class=STRING,delta=2,noexec
     5                           	psect	cinit,global,class=CODE,merge=1,delta=2
     6                           	psect	bssCOMMON,global,class=COMMON,space=1,delta=1,noexec
     7                           	psect	bssBANK0,global,class=BANK0,space=1,delta=1,noexec
     8                           	psect	cstackCOMMON,global,class=COMMON,space=1,delta=1,noexec
     9                           	psect	cstackBANK0,global,class=BANK0,space=1,delta=1,noexec
    10                           	psect	maintext,global,class=CODE,split=1,delta=2
    11                           	psect	text1,local,class=CODE,merge=1,delta=2
    12                           	psect	text2,local,class=CODE,merge=1,delta=2
    13                           	psect	text3,local,class=CODE,merge=1,delta=2
    14                           	psect	text4,local,class=CODE,merge=1,delta=2
    15                           	psect	text5,local,class=CODE,merge=1,delta=2
    16                           	psect	text6,local,class=CODE,merge=1,delta=2,group=1
    17                           	psect	text7,local,class=CODE,merge=1,delta=2,group=1
    18                           	psect	text8,local,class=CODE,merge=1,delta=2,group=1
    19                           	psect	text9,local,class=CODE,merge=1,delta=2,group=1
    20                           	psect	text10,local,class=CODE,merge=1,delta=2,group=1
    21                           	psect	text11,local,class=CODE,merge=1,delta=2
    22                           	psect	intentry,global,class=CODE,delta=2
    23                           	psect	idloc,global,abs,ovrld,class=IDLOC,space=5,delta=2,noexec
    24                           	psect	config,global,abs,ovrld,class=CONFIG,space=4,delta=2,noexec
    25                           	dabs	1,0x7E,2
    26  0000                     
    27                           ; Version 2.40
    28                           ; Generated 17/11/2021 GMT
    29                           ; 
    30                           ; Copyright © 2021, Microchip Technology Inc. and its subsidiaries ("Microchip")
    31                           ; All rights reserved.
    32                           ; 
    33                           ; This software is developed by Microchip Technology Inc. and its subsidiaries ("Microch
      +                          ip").
    34                           ; 
    35                           ; Redistribution and use in source and binary forms, with or without modification, are
    36                           ; permitted provided that the following conditions are met:
    37                           ; 
    38                           ;     1. Redistributions of source code must retain the above copyright notice, this lis
      +                          t of
    39                           ;        conditions and the following disclaimer.
    40                           ; 
    41                           ;     2. Redistributions in binary form must reproduce the above copyright notice, this 
      +                          list
    42                           ;        of conditions and the following disclaimer in the documentation and/or other
    43                           ;        materials provided with the distribution. Publication is not required when
    44                           ;        this file is used in an embedded application.
    45                           ; 
    46                           ;     3. Microchip's name may not be used to endorse or promote products derived from th
      +                          is
    47                           ;        software without specific prior written permission.
    48                           ; 
    49                           ; THIS SOFTWARE IS PROVIDED BY MICROCHIP "AS IS" AND ANY EXPRESS OR IMPLIED WARRANTIES,
    50                           ; INCLUDING, BUT NOT LIMITED TO, THE IMPLIED WARRANTIES OF MERCHANTABILITY AND FITNESS F
      +                          OR
    51                           ; PURPOSE ARE DISCLAIMED.  IN NO EVENT SHALL MICROCHIP BE LIABLE FOR ANY DIRECT, INDIREC
      +                          T,
    52                           ; INCIDENTAL, SPECIAL, EXEMPLARY, OR CONSEQUENTIAL DAMAGES (INCLUDING BUT NOT LIMITED TO
    53                           ; PROCUREMENT OF SUBSTITUTE GOODS OR SERVICES; LOSS OF USE, DATA OR PROFITS; OR BUSINESS
    54                           ; INTERRUPTION) HOWSOEVER CAUSED AND ON ANY THEORY OF LIABILITY, WHETHER IN CONTRACT, ST
      +                          RICT
    55                           ; LIABILITY, OR TORT (INCLUDING NEGLIGENCE OR OTHERWISE) ARISING IN ANY WAY OUT OF THE U
      +                          SE OF
    56                           ; THIS SOFTWARE, EVEN IF ADVISED OF THE POSSIBILITY OF SUCH DAMAGE.
    57                           ; 
    58                           ; 
    59                           ; Code-generator required, PIC16F887 Definitions
    60                           ; 
    61                           ; SFR Addresses
    62  0000                     	;# 
    63  0001                     	;# 
    64  0002                     	;# 
    65  0003                     	;# 
    66  0004                     	;# 
    67  0005                     	;# 
    68  0006                     	;# 
    69  0007                     	;# 
    70  0008                     	;# 
    71  0009                     	;# 
    72  000A                     	;# 
    73  000B                     	;# 
    74  000C                     	;# 
    75  000D                     	;# 
    76  000E                     	;# 
    77  000E                     	;# 
    78  000F                     	;# 
    79  0010                     	;# 
    80  0011                     	;# 
    81  0012                     	;# 
    82  0013                     	;# 
    83  0014                     	;# 
    84  0015                     	;# 
    85  0015                     	;# 
    86  0016                     	;# 
    87  0017                     	;# 
    88  0018                     	;# 
    89  0019                     	;# 
    90  001A                     	;# 
    91  001B                     	;# 
    92  001B                     	;# 
    93  001C                     	;# 
    94  001D                     	;# 
    95  001E                     	;# 
    96  001F                     	;# 
    97  0081                     	;# 
    98  0085                     	;# 
    99  0086                     	;# 
   100  0087                     	;# 
   101  0088                     	;# 
   102  0089                     	;# 
   103  008C                     	;# 
   104  008D                     	;# 
   105  008E                     	;# 
   106  008F                     	;# 
   107  0090                     	;# 
   108  0091                     	;# 
   109  0092                     	;# 
   110  0093                     	;# 
   111  0093                     	;# 
   112  0093                     	;# 
   113  0094                     	;# 
   114  0095                     	;# 
   115  0096                     	;# 
   116  0097                     	;# 
   117  0098                     	;# 
   118  0099                     	;# 
   119  009A                     	;# 
   120  009B                     	;# 
   121  009C                     	;# 
   122  009D                     	;# 
   123  009E                     	;# 
   124  009F                     	;# 
   125  0105                     	;# 
   126  0107                     	;# 
   127  0108                     	;# 
   128  0109                     	;# 
   129  010C                     	;# 
   130  010C                     	;# 
   131  010D                     	;# 
   132  010E                     	;# 
   133  010F                     	;# 
   134  0185                     	;# 
   135  0187                     	;# 
   136  0188                     	;# 
   137  0189                     	;# 
   138  018C                     	;# 
   139  018D                     	;# 
   140  0000                     	;# 
   141  0001                     	;# 
   142  0002                     	;# 
   143  0003                     	;# 
   144  0004                     	;# 
   145  0005                     	;# 
   146  0006                     	;# 
   147  0007                     	;# 
   148  0008                     	;# 
   149  0009                     	;# 
   150  000A                     	;# 
   151  000B                     	;# 
   152  000C                     	;# 
   153  000D                     	;# 
   154  000E                     	;# 
   155  000E                     	;# 
   156  000F                     	;# 
   157  0010                     	;# 
   158  0011                     	;# 
   159  0012                     	;# 
   160  0013                     	;# 
   161  0014                     	;# 
   162  0015                     	;# 
   163  0015                     	;# 
   164  0016                     	;# 
   165  0017                     	;# 
   166  0018                     	;# 
   167  0019                     	;# 
   168  001A                     	;# 
   169  001B                     	;# 
   170  001B                     	;# 
   171  001C                     	;# 
   172  001D                     	;# 
   173  001E                     	;# 
   174  001F                     	;# 
   175  0081                     	;# 
   176  0085                     	;# 
   177  0086                     	;# 
   178  0087                     	;# 
   179  0088                     	;# 
   180  0089                     	;# 
   181  008C                     	;# 
   182  008D                     	;# 
   183  008E                     	;# 
   184  008F                     	;# 
   185  0090                     	;# 
   186  0091                     	;# 
   187  0092                     	;# 
   188  0093                     	;# 
   189  0093                     	;# 
   190  0093                     	;# 
   191  0094                     	;# 
   192  0095                     	;# 
   193  0096                     	;# 
   194  0097                     	;# 
   195  0098                     	;# 
   196  0099                     	;# 
   197  009A                     	;# 
   198  009B                     	;# 
   199  009C                     	;# 
   200  009D                     	;# 
   201  009E                     	;# 
   202  009F                     	;# 
   203  0105                     	;# 
   204  0107                     	;# 
   205  0108                     	;# 
   206  0109                     	;# 
   207  010C                     	;# 
   208  010C                     	;# 
   209  010D                     	;# 
   210  010E                     	;# 
   211  010F                     	;# 
   212  0185                     	;# 
   213  0187                     	;# 
   214  0188                     	;# 
   215  0189                     	;# 
   216  018C                     	;# 
   217  018D                     	;# 
   218  0018                     _RCSTAbits	set	24
   219  000B                     _INTCONbits	set	11
   220  0006                     _PORTB	set	6
   221  0019                     _TXREG	set	25
   222  001A                     _RCREG	set	26
   223  0015                     _CCPR1L	set	21
   224  001E                     _ADRESH	set	30
   225  001F                     _ADCON0bits	set	31
   226  0006                     _PORTBbits	set	6
   227  000C                     _PIR1bits	set	12
   228  0064                     _TXIF	set	100
   229  0098                     _TXSTAbits	set	152
   230  0099                     _SPBRG	set	153
   231  009F                     _ADCON1bits	set	159
   232  0085                     _TRISAbits	set	133
   233  008C                     _PIE1bits	set	140
   234  008F                     _OSCCONbits	set	143
   235  0086                     _TRISB	set	134
   236  0188                     _ANSELbits	set	392
   237                           
   238                           	psect	strings
   239  0800                     __pstrings:
   240  0800                     stringtab:
   241  0800                     __stringtab:
   242  0800                     stringcode:	
   243                           ;	String table - string pointers are 1 byte each
   244                           
   245  0800                     stringdir:
   246  0800  3008               	movlw	high stringdir
   247  0801  008A               	movwf	10
   248  0802  0804               	movf	4,w
   249  0803  0A84               	incf	4,f
   250  0804  0782               	addwf	2,f
   251  0805                     __stringbase:
   252  0805  3400               	retlw	0
   253  0806                     __end_of__stringtab:
   254  0806                     STR_3:
   255  0806  3456               	retlw	86	;'V'
   256  0807  3461               	retlw	97	;'a'
   257  0808  346C               	retlw	108	;'l'
   258  0809  346F               	retlw	111	;'o'
   259  080A  3472               	retlw	114	;'r'
   260  080B  3420               	retlw	32	;' '
   261  080C  3464               	retlw	100	;'d'
   262  080D  3465               	retlw	101	;'e'
   263  080E  346C               	retlw	108	;'l'
   264  080F  3420               	retlw	32	;' '
   265  0810  3470               	retlw	112	;'p'
   266  0811  346F               	retlw	111	;'o'
   267  0812  3474               	retlw	116	;'t'
   268  0813  3465               	retlw	101	;'e'
   269  0814  346E               	retlw	110	;'n'
   270  0815  3463               	retlw	99	;'c'
   271  0816  3469               	retlw	105	;'i'
   272  0817  346F               	retlw	111	;'o'
   273  0818  346D               	retlw	109	;'m'
   274  0819  3465               	retlw	101	;'e'
   275  081A  3474               	retlw	116	;'t'
   276  081B  3472               	retlw	114	;'r'
   277  081C  346F               	retlw	111	;'o'
   278  081D  3420               	retlw	32	;' '
   279  081E  343D               	retlw	61	;'='
   280  081F  3420               	retlw	32	;' '
   281  0820  3400               	retlw	0
   282  0821                     STR_4:
   283  0821  3443               	retlw	67	;'C'
   284  0822  3461               	retlw	97	;'a'
   285  0823  3472               	retlw	114	;'r'
   286  0824  3461               	retlw	97	;'a'
   287  0825  3463               	retlw	99	;'c'
   288  0826  3474               	retlw	116	;'t'
   289  0827  3465               	retlw	101	;'e'
   290  0828  3472               	retlw	114	;'r'
   291  0829  3420               	retlw	32	;' '
   292  082A  3441               	retlw	65	;'A'
   293  082B  3473               	retlw	115	;'s'
   294  082C  3463               	retlw	99	;'c'
   295  082D  3469               	retlw	105	;'i'
   296  082E  3469               	retlw	105	;'i'
   297  082F  3420               	retlw	32	;' '
   298  0830  3461               	retlw	97	;'a'
   299  0831  3420               	retlw	32	;' '
   300  0832  346D               	retlw	109	;'m'
   301  0833  346F               	retlw	111	;'o'
   302  0834  3473               	retlw	115	;'s'
   303  0835  3474               	retlw	116	;'t'
   304  0836  3472               	retlw	114	;'r'
   305  0837  3461               	retlw	97	;'a'
   306  0838  3472               	retlw	114	;'r'
   307  0839  342E               	retlw	46	;'.'
   308  083A  342E               	retlw	46	;'.'
   309  083B  3400               	retlw	0
   310  083C                     STR_1:
   311  083C  346C               	retlw	108	;'l'
   312  083D  3429               	retlw	41	;')'
   313  083E  344C               	retlw	76	;'L'
   314  083F  3465               	retlw	101	;'e'
   315  0840  3465               	retlw	101	;'e'
   316  0841  3472               	retlw	114	;'r'
   317  0842  3420               	retlw	32	;' '
   318  0843  3450               	retlw	80	;'P'
   319  0844  346F               	retlw	111	;'o'
   320  0845  3474               	retlw	116	;'t'
   321  0846  3465               	retlw	101	;'e'
   322  0847  346E               	retlw	110	;'n'
   323  0848  3463               	retlw	99	;'c'
   324  0849  3469               	retlw	105	;'i'
   325  084A  346F               	retlw	111	;'o'
   326  084B  346D               	retlw	109	;'m'
   327  084C  3465               	retlw	101	;'e'
   328  084D  3474               	retlw	116	;'t'
   329  084E  3472               	retlw	114	;'r'
   330  084F  346F               	retlw	111	;'o'
   331  0850  340D               	retlw	13
   332  0851  3400               	retlw	0
   333  0852                     STR_2:
   334  0852  3432               	retlw	50	;'2'
   335  0853  3429               	retlw	41	;')'
   336  0854  3420               	retlw	32	;' '
   337  0855  3445               	retlw	69	;'E'
   338  0856  346E               	retlw	110	;'n'
   339  0857  3476               	retlw	118	;'v'
   340  0858  3469               	retlw	105	;'i'
   341  0859  3461               	retlw	97	;'a'
   342  085A  3472               	retlw	114	;'r'
   343  085B  3420               	retlw	32	;' '
   344  085C  3441               	retlw	65	;'A'
   345  085D  3453               	retlw	83	;'S'
   346  085E  3443               	retlw	67	;'C'
   347  085F  3449               	retlw	73	;'I'
   348  0860  3449               	retlw	73	;'I'
   349  0861  3420               	retlw	32	;' '
   350  0862  340D               	retlw	13
   351  0863  3400               	retlw	0
   352  0864                     STR_5:
   353  0864  3465               	retlw	101	;'e'
   354  0865  3472               	retlw	114	;'r'
   355  0866  3472               	retlw	114	;'r'
   356  0867  346F               	retlw	111	;'o'
   357  0868  3472               	retlw	114	;'r'
   358  0869  3420               	retlw	32	;' '
   359  086A  3461               	retlw	97	;'a'
   360  086B  346C               	retlw	108	;'l'
   361  086C  3420               	retlw	32	;' '
   362  086D  3465               	retlw	101	;'e'
   363  086E  346C               	retlw	108	;'l'
   364  086F  3465               	retlw	101	;'e'
   365  0870  3467               	retlw	103	;'g'
   366  0871  3469               	retlw	105	;'i'
   367  0872  3472               	retlw	114	;'r'
   368  0873  3400               	retlw	0
   369                           
   370                           	psect	cinit
   371  000F                     start_initialization:	
   372                           ; #config settings
   373                           
   374  000F                     __initialization:
   375                           
   376                           ; Clear objects allocated to COMMON
   377  000F  01FA               	clrf	__pbssCOMMON& (0+127)
   378  0010  01FB               	clrf	(__pbssCOMMON+1)& (0+127)
   379                           
   380                           ; Clear objects allocated to BANK0
   381  0011  1283               	bcf	3,5	;RP0=0, select bank0
   382  0012  1303               	bcf	3,6	;RP1=0, select bank0
   383  0013  01E3               	clrf	__pbssBANK0& (0+127)
   384  0014  01E4               	clrf	(__pbssBANK0+1)& (0+127)
   385  0015  01E5               	clrf	(__pbssBANK0+2)& (0+127)
   386  0016  01E6               	clrf	(__pbssBANK0+3)& (0+127)
   387  0017  01E7               	clrf	(__pbssBANK0+4)& (0+127)
   388  0018                     end_of_initialization:	
   389                           ;End of C runtime variable initialization code
   390                           
   391  0018                     __end_of__initialization:
   392  0018  0183               	clrf	3
   393  0019  120A  118A  2EC1   	ljmp	_main	;jump to C main() function
   394                           
   395                           	psect	bssCOMMON
   396  007A                     __pbssCOMMON:
   397  007A                     _loop:
   398  007A                     	ds	2
   399                           
   400                           	psect	bssBANK0
   401  0063                     __pbssBANK0:
   402  0063                     _equivalent:
   403  0063                     	ds	2
   404  0065                     _ADC_voltaje1:
   405  0065                     	ds	2
   406  0067                     _option_selected:
   407  0067                     	ds	1
   408                           
   409                           	psect	cstackCOMMON
   410  0070                     __pcstackCOMMON:
   411  0070                     ?_setup:
   412  0070                     ?_setupADC:	
   413                           ; 1 bytes @ 0x0
   414                           
   415  0070                     ?_initUART:	
   416                           ; 1 bytes @ 0x0
   417                           
   418  0070                     ?_print:	
   419                           ; 1 bytes @ 0x0
   420                           
   421  0070                     ?_isr:	
   422                           ; 1 bytes @ 0x0
   423                           
   424  0070                     ??_isr:	
   425                           ; 1 bytes @ 0x0
   426                           
   427  0070                     ?_main:	
   428                           ; 1 bytes @ 0x0
   429                           
   430                           
   431                           ; 1 bytes @ 0x0
   432  0070                     	ds	2
   433  0072                     ??_setup:
   434  0072                     ??_setupADC:	
   435                           ; 1 bytes @ 0x2
   436                           
   437  0072                     ??_initUART:	
   438                           ; 1 bytes @ 0x2
   439                           
   440  0072                     ??_print:	
   441                           ; 1 bytes @ 0x2
   442                           
   443  0072                     ?__Umul8_16:	
   444                           ; 1 bytes @ 0x2
   445                           
   446  0072                     ?___xxtofl:	
   447                           ; 2 bytes @ 0x2
   448                           
   449  0072                     __Umul8_16@multiplicand:	
   450                           ; 4 bytes @ 0x2
   451                           
   452  0072                     ___xxtofl@val:	
   453                           ; 1 bytes @ 0x2
   454                           
   455                           
   456                           ; 4 bytes @ 0x2
   457  0072                     	ds	1
   458  0073                     print@palabra:
   459                           
   460                           ; 1 bytes @ 0x3
   461  0073                     	ds	1
   462  0074                     ??__Umul8_16:
   463                           
   464                           ; 1 bytes @ 0x4
   465  0074                     	ds	2
   466  0076                     ??___xxtofl:
   467                           
   468                           ; 1 bytes @ 0x6
   469  0076                     	ds	4
   470  007A                     ??_conversion:
   471                           
   472                           	psect	cstackBANK0
   473  0020                     __pcstackBANK0:	
   474                           ; 1 bytes @ 0xA
   475                           
   476  0020                     ___xxtofl@sign:
   477  0020                     __Umul8_16@product:	
   478                           ; 1 bytes @ 0x0
   479                           
   480                           
   481                           ; 2 bytes @ 0x0
   482  0020                     	ds	1
   483  0021                     ___xxtofl@exp:
   484                           
   485                           ; 1 bytes @ 0x1
   486  0021                     	ds	1
   487  0022                     __Umul8_16@word_mpld:
   488  0022                     ___xxtofl@arg:	
   489                           ; 2 bytes @ 0x2
   490                           
   491                           
   492                           ; 4 bytes @ 0x2
   493  0022                     	ds	2
   494  0024                     __Umul8_16@multiplier:
   495                           
   496                           ; 1 bytes @ 0x4
   497  0024                     	ds	2
   498  0026                     ?___flmul:
   499  0026                     ___flmul@b:	
   500                           ; 4 bytes @ 0x6
   501                           
   502                           
   503                           ; 4 bytes @ 0x6
   504  0026                     	ds	4
   505  002A                     ___flmul@a:
   506                           
   507                           ; 4 bytes @ 0xA
   508  002A                     	ds	4
   509  002E                     ??___flmul:
   510                           
   511                           ; 1 bytes @ 0xE
   512  002E                     	ds	5
   513  0033                     ___flmul@sign:
   514                           
   515                           ; 1 bytes @ 0x13
   516  0033                     	ds	1
   517  0034                     ___flmul@aexp:
   518                           
   519                           ; 1 bytes @ 0x14
   520  0034                     	ds	1
   521  0035                     ___flmul@grs:
   522                           
   523                           ; 4 bytes @ 0x15
   524  0035                     	ds	4
   525  0039                     ___flmul@bexp:
   526                           
   527                           ; 1 bytes @ 0x19
   528  0039                     	ds	1
   529  003A                     ___flmul@prod:
   530                           
   531                           ; 4 bytes @ 0x1A
   532  003A                     	ds	4
   533  003E                     ___flmul@temp:
   534                           
   535                           ; 2 bytes @ 0x1E
   536  003E                     	ds	2
   537  0040                     ?___fladd:
   538  0040                     ___fladd@b:	
   539                           ; 4 bytes @ 0x20
   540                           
   541                           
   542                           ; 4 bytes @ 0x20
   543  0040                     	ds	4
   544  0044                     ___fladd@a:
   545                           
   546                           ; 4 bytes @ 0x24
   547  0044                     	ds	4
   548  0048                     ??___fladd:
   549                           
   550                           ; 1 bytes @ 0x28
   551  0048                     	ds	8
   552  0050                     ___fladd@signs:
   553                           
   554                           ; 1 bytes @ 0x30
   555  0050                     	ds	1
   556  0051                     ___fladd@aexp:
   557                           
   558                           ; 1 bytes @ 0x31
   559  0051                     	ds	1
   560  0052                     ___fladd@bexp:
   561                           
   562                           ; 1 bytes @ 0x32
   563  0052                     	ds	1
   564  0053                     ___fladd@grs:
   565                           
   566                           ; 1 bytes @ 0x33
   567  0053                     	ds	1
   568  0054                     ?___fltol:
   569  0054                     ___fltol@f1:	
   570                           ; 4 bytes @ 0x34
   571                           
   572                           
   573                           ; 4 bytes @ 0x34
   574  0054                     	ds	4
   575  0058                     ??___fltol:
   576                           
   577                           ; 1 bytes @ 0x38
   578  0058                     	ds	5
   579  005D                     ___fltol@sign1:
   580                           
   581                           ; 1 bytes @ 0x3D
   582  005D                     	ds	1
   583  005E                     ___fltol@exp1:
   584                           
   585                           ; 1 bytes @ 0x3E
   586  005E                     	ds	1
   587  005F                     ?_conversion:
   588  005F                     conversion@voltaje:	
   589                           ; 1 bytes @ 0x3F
   590                           
   591                           
   592                           ; 2 bytes @ 0x3F
   593  005F                     	ds	2
   594  0061                     ??_main:
   595                           
   596                           ; 1 bytes @ 0x41
   597  0061                     	ds	2
   598                           
   599                           	psect	maintext
   600  06C1                     __pmaintext:	
   601 ;;
   602 ;;Main: autosize = 0, tempsize = 2, incstack = 0, save=0
   603 ;;
   604 ;; *************** function _main *****************
   605 ;; Defined at:
   606 ;;		line 48 in file "main.c"
   607 ;; Parameters:    Size  Location     Type
   608 ;;		None
   609 ;; Auto vars:     Size  Location     Type
   610 ;;		None
   611 ;; Return value:  Size  Location     Type
   612 ;;                  1    wreg      void 
   613 ;; Registers used:
   614 ;;		wreg, fsr0l, fsr0h, status,2, status,0, btemp+1, pclath, cstack
   615 ;; Tracked objects:
   616 ;;		On entry : B00/0
   617 ;;		On exit  : 0/0
   618 ;;		Unchanged: 0/0
   619 ;; Data sizes:     COMMON   BANK0   BANK1   BANK3   BANK2
   620 ;;      Params:         0       0       0       0       0
   621 ;;      Locals:         0       0       0       0       0
   622 ;;      Temps:          0       2       0       0       0
   623 ;;      Totals:         0       2       0       0       0
   624 ;;Total ram usage:        2 bytes
   625 ;; Hardware stack levels required when called: 4
   626 ;; This function calls:
   627 ;;		_conversion
   628 ;;		_initUART
   629 ;;		_print
   630 ;;		_setup
   631 ;;		_setupADC
   632 ;; This function is called by:
   633 ;;		Startup code after reset
   634 ;; This function uses a non-reentrant model
   635 ;;
   636                           
   637  06C1                     _main:	
   638                           ;psect for function _main
   639                           
   640  06C1                     l1886:	
   641                           ;incstack = 0
   642                           ; Regs used in _main: [wreg-fsr0h+status,2+status,0+btemp+1+pclath+cstack]
   643                           
   644                           
   645                           ;main.c: 49:     setup();
   646  06C1  120A  118A  27EA  120A  118A  	fcall	_setup
   647                           
   648                           ;main.c: 50:     setupADC();
   649  06C6  120A  158A  276C  120A  118A  	fcall	_setupADC
   650                           
   651                           ;main.c: 51:     initUART();
   652  06CB  120A  158A  275C  120A  118A  	fcall	_initUART
   653  06D0                     l1888:
   654                           
   655                           ;main.c: 54:         print("l)Leer Potenciometro\r");
   656  06D0  3037               	movlw	(low ((STR_1-__stringbase)| (0+32768)))& (0+255)
   657  06D1  120A  158A  278A  120A  118A  	fcall	_print
   658  06D6                     l1890:
   659                           
   660                           ;main.c: 55:         print("2) Enviar ASCII \r");
   661  06D6  304D               	movlw	(low ((STR_2-__stringbase)| (0+32768)))& (0+255)
   662  06D7  120A  158A  278A  120A  118A  	fcall	_print
   663  06DC                     l70:	
   664                           ;main.c: 59:         }
   665                           
   666                           
   667                           ;main.c: 57:         while(PIR1bits.RCIF==0){
   668  06DC  1283               	bcf	3,5	;RP0=0, select bank0
   669  06DD  1303               	bcf	3,6	;RP1=0, select bank0
   670  06DE  1E8C               	btfss	12,5	;volatile
   671  06DF  2EE1               	goto	u2761
   672  06E0  2EE2               	goto	u2760
   673  06E1                     u2761:
   674  06E1  2EDC               	goto	l70
   675  06E2                     u2760:
   676  06E2                     l1892:
   677                           
   678                           ;main.c: 60:         ADCON0bits.CHS = 0b0001;
   679  06E2  081F               	movf	31,w	;volatile
   680  06E3  39C3               	andlw	-61
   681  06E4  3804               	iorlw	4
   682  06E5  009F               	movwf	31	;volatile
   683  06E6                     l1894:
   684                           
   685                           ;main.c: 61:         _delay((unsigned long)((100)*(8000000/4000000.0)));
   686  06E6  3041               	movlw	65
   687  06E7  1283               	bcf	3,5	;RP0=0, select bank0
   688  06E8  1303               	bcf	3,6	;RP1=0, select bank0
   689  06E9  00E1               	movwf	??_main
   690  06EA                     u2817:
   691  06EA  0BE1               	decfsz	??_main,f
   692  06EB  2EEA               	goto	u2817
   693  06EC  2EED               	nop2
   694  06ED                     l1896:
   695                           
   696                           ;main.c: 62:         ADCON0bits.GO=1;
   697  06ED  1283               	bcf	3,5	;RP0=0, select bank0
   698  06EE  1303               	bcf	3,6	;RP1=0, select bank0
   699  06EF  149F               	bsf	31,1	;volatile
   700  06F0                     l73:	
   701                           ;main.c: 65:         }
   702                           
   703                           
   704                           ;main.c: 63:         while(ADCON0bits.GO==1){
   705  06F0  189F               	btfsc	31,1	;volatile
   706  06F1  2EF3               	goto	u2771
   707  06F2  2EF4               	goto	u2770
   708  06F3                     u2771:
   709  06F3  2EF0               	goto	l73
   710  06F4                     u2770:
   711  06F4                     l1898:
   712                           
   713                           ;main.c: 66:         ADC_voltaje1= ADRESH;
   714  06F4  081E               	movf	30,w	;volatile
   715  06F5  00E1               	movwf	??_main
   716  06F6  01E2               	clrf	??_main+1
   717  06F7  0861               	movf	??_main,w
   718  06F8  00E5               	movwf	_ADC_voltaje1
   719  06F9  0862               	movf	??_main+1,w
   720  06FA  00E6               	movwf	_ADC_voltaje1+1
   721  06FB                     l1900:
   722                           
   723                           ;main.c: 67:         conversion(ADC_voltaje1);
   724  06FB  0866               	movf	_ADC_voltaje1+1,w
   725  06FC  00E0               	movwf	conversion@voltaje+1
   726  06FD  0865               	movf	_ADC_voltaje1,w
   727  06FE  00DF               	movwf	conversion@voltaje
   728  06FF  120A  158A  27AB  120A  118A  	fcall	_conversion
   729  0704                     l1902:
   730                           
   731                           ;main.c: 68:         CCPR1L= ADC_voltaje1;
   732  0704  1283               	bcf	3,5	;RP0=0, select bank0
   733  0705  1303               	bcf	3,6	;RP1=0, select bank0
   734  0706  0865               	movf	_ADC_voltaje1,w
   735  0707  0095               	movwf	21	;volatile
   736  0708                     l1904:
   737                           
   738                           ;main.c: 69:         _delay((unsigned long)((100)*(8000000/4000000.0)));
   739  0708  3041               	movlw	65
   740  0709  1283               	bcf	3,5	;RP0=0, select bank0
   741  070A  1303               	bcf	3,6	;RP1=0, select bank0
   742  070B  00E1               	movwf	??_main
   743  070C                     u2827:
   744  070C  0BE1               	decfsz	??_main,f
   745  070D  2F0C               	goto	u2827
   746  070E  2F0F               	nop2
   747  070F                     l1906:
   748                           
   749                           ;main.c: 70:         option_selected= RCREG;
   750  070F  1283               	bcf	3,5	;RP0=0, select bank0
   751  0710  1303               	bcf	3,6	;RP1=0, select bank0
   752  0711  081A               	movf	26,w	;volatile
   753  0712  00E1               	movwf	??_main
   754  0713  0861               	movf	??_main,w
   755  0714  00E7               	movwf	_option_selected
   756  0715                     l1908:
   757                           
   758                           ;main.c: 71:         if(option_selected=='1'){
   759  0715  3031               	movlw	49
   760  0716  0667               	xorwf	_option_selected,w
   761  0717  1D03               	btfss	3,2
   762  0718  2F1A               	goto	u2781
   763  0719  2F1B               	goto	u2780
   764  071A                     u2781:
   765  071A  2F26               	goto	l1914
   766  071B                     u2780:
   767  071B                     l1910:
   768                           
   769                           ;main.c: 72:             print("Valor del potenciometro = ");
   770  071B  3001               	movlw	(low ((STR_3-__stringbase)| (0+32768)))& (0+255)
   771  071C  120A  158A  278A  120A  118A  	fcall	_print
   772  0721                     l1912:
   773                           
   774                           ;main.c: 73:             TXREG= CCPR1L;
   775  0721  1283               	bcf	3,5	;RP0=0, select bank0
   776  0722  1303               	bcf	3,6	;RP1=0, select bank0
   777  0723  0815               	movf	21,w	;volatile
   778  0724  0099               	movwf	25	;volatile
   779                           
   780                           ;main.c: 75:         }else if(option_selected == '2'){
   781  0725  2ED0               	goto	l1888
   782  0726                     l1914:
   783  0726  3032               	movlw	50
   784  0727  0667               	xorwf	_option_selected,w
   785  0728  1D03               	btfss	3,2
   786  0729  2F2B               	goto	u2791
   787  072A  2F2C               	goto	u2790
   788  072B                     u2791:
   789  072B  2F3B               	goto	l1920
   790  072C                     u2790:
   791  072C                     l1916:
   792                           
   793                           ;main.c: 76:             print("Caracter Ascii a mostrar..");
   794  072C  301C               	movlw	(low ((STR_4-__stringbase)| (0+32768)))& (0+255)
   795  072D  120A  158A  278A  120A  118A  	fcall	_print
   796  0732                     l79:	
   797                           ;main.c: 79:             }
   798                           
   799                           
   800                           ;main.c: 77:             while(PIR1bits.RCIF ==0){
   801  0732  1283               	bcf	3,5	;RP0=0, select bank0
   802  0733  1303               	bcf	3,6	;RP1=0, select bank0
   803  0734  1E8C               	btfss	12,5	;volatile
   804  0735  2F37               	goto	u2801
   805  0736  2F38               	goto	u2800
   806  0737                     u2801:
   807  0737  2F32               	goto	l79
   808  0738                     u2800:
   809  0738                     l1918:
   810                           
   811                           ;main.c: 80:             PORTB=RCREG;
   812  0738  081A               	movf	26,w	;volatile
   813  0739  0086               	movwf	6	;volatile
   814                           
   815                           ;main.c: 81:         }else{
   816  073A  2ED0               	goto	l1888
   817  073B                     l1920:
   818                           
   819                           ;main.c: 82:             print("error al elegir");
   820  073B  305F               	movlw	(low ((STR_5-__stringbase)| (0+32768)))& (0+255)
   821  073C  120A  158A  278A  120A  118A  	fcall	_print
   822  0741  2ED0               	goto	l1888
   823  0742  120A  118A  280C   	ljmp	start
   824  0745                     __end_of_main:
   825                           
   826                           	psect	text1
   827  0F6C                     __ptext1:	
   828 ;; *************** function _setupADC *****************
   829 ;; Defined at:
   830 ;;		line 97 in file "main.c"
   831 ;; Parameters:    Size  Location     Type
   832 ;;		None
   833 ;; Auto vars:     Size  Location     Type
   834 ;;		None
   835 ;; Return value:  Size  Location     Type
   836 ;;                  1    wreg      void 
   837 ;; Registers used:
   838 ;;		wreg, status,2, status,0
   839 ;; Tracked objects:
   840 ;;		On entry : 0/0
   841 ;;		On exit  : 0/0
   842 ;;		Unchanged: 0/0
   843 ;; Data sizes:     COMMON   BANK0   BANK1   BANK3   BANK2
   844 ;;      Params:         0       0       0       0       0
   845 ;;      Locals:         0       0       0       0       0
   846 ;;      Temps:          1       0       0       0       0
   847 ;;      Totals:         1       0       0       0       0
   848 ;;Total ram usage:        1 bytes
   849 ;; Hardware stack levels used: 1
   850 ;; Hardware stack levels required when called: 1
   851 ;; This function calls:
   852 ;;		Nothing
   853 ;; This function is called by:
   854 ;;		_main
   855 ;; This function uses a non-reentrant model
   856 ;;
   857                           
   858  0F6C                     _setupADC:	
   859                           ;psect for function _setupADC
   860                           
   861  0F6C                     l1658:	
   862                           ;incstack = 0
   863                           ; Regs used in _setupADC: [wreg+status,2+status,0]
   864                           
   865                           
   866                           ;main.c: 98:     TRISAbits.TRISA1=1;
   867  0F6C  1683               	bsf	3,5	;RP0=1, select bank1
   868  0F6D  1303               	bcf	3,6	;RP1=0, select bank1
   869  0F6E  1485               	bsf	5,1	;volatile
   870                           
   871                           ;main.c: 99:     ANSELbits.ANS1=1;
   872  0F6F  1683               	bsf	3,5	;RP0=1, select bank3
   873  0F70  1703               	bsf	3,6	;RP1=1, select bank3
   874  0F71  1488               	bsf	8,1	;volatile
   875  0F72                     l1660:
   876                           
   877                           ;main.c: 100:     ADCON0bits.ADCS= 0b10;
   878  0F72  1283               	bcf	3,5	;RP0=0, select bank0
   879  0F73  1303               	bcf	3,6	;RP1=0, select bank0
   880  0F74  081F               	movf	31,w	;volatile
   881  0F75  393F               	andlw	-193
   882  0F76  3880               	iorlw	128
   883  0F77  009F               	movwf	31	;volatile
   884  0F78                     l1662:
   885                           
   886                           ;main.c: 101:     ADCON1bits.VCFG1=0;
   887  0F78  1683               	bsf	3,5	;RP0=1, select bank1
   888  0F79  1303               	bcf	3,6	;RP1=0, select bank1
   889  0F7A  129F               	bcf	31,5	;volatile
   890  0F7B                     l1664:
   891                           
   892                           ;main.c: 102:     ADCON1bits.VCFG0=0;
   893  0F7B  121F               	bcf	31,4	;volatile
   894  0F7C                     l1666:
   895                           
   896                           ;main.c: 103:     ADCON1bits.ADFM=0;
   897  0F7C  139F               	bcf	31,7	;volatile
   898                           
   899                           ;main.c: 104:     ADCON0bits.CHS= 0b0001;
   900  0F7D  1283               	bcf	3,5	;RP0=0, select bank0
   901  0F7E  1303               	bcf	3,6	;RP1=0, select bank0
   902  0F7F  081F               	movf	31,w	;volatile
   903  0F80  39C3               	andlw	-61
   904  0F81  3804               	iorlw	4
   905  0F82  009F               	movwf	31	;volatile
   906  0F83                     l1668:
   907                           
   908                           ;main.c: 105:     ADCON0bits.ADON=1;
   909  0F83  141F               	bsf	31,0	;volatile
   910  0F84                     l1670:
   911                           
   912                           ;main.c: 106:     _delay((unsigned long)((100)*(8000000/4000000.0)));
   913  0F84  3042               	movlw	66
   914  0F85  00F2               	movwf	??_setupADC
   915  0F86                     u2837:
   916  0F86  0BF2               	decfsz	??_setupADC,f
   917  0F87  2F86               	goto	u2837
   918  0F88  0000               	nop
   919  0F89                     l91:
   920  0F89  0008               	return
   921  0F8A                     __end_of_setupADC:
   922                           
   923                           	psect	text2
   924  07EA                     __ptext2:	
   925 ;; *************** function _setup *****************
   926 ;; Defined at:
   927 ;;		line 87 in file "main.c"
   928 ;; Parameters:    Size  Location     Type
   929 ;;		None
   930 ;; Auto vars:     Size  Location     Type
   931 ;;		None
   932 ;; Return value:  Size  Location     Type
   933 ;;                  1    wreg      void 
   934 ;; Registers used:
   935 ;;		wreg, status,2, status,0
   936 ;; Tracked objects:
   937 ;;		On entry : 0/0
   938 ;;		On exit  : 0/0
   939 ;;		Unchanged: 0/0
   940 ;; Data sizes:     COMMON   BANK0   BANK1   BANK3   BANK2
   941 ;;      Params:         0       0       0       0       0
   942 ;;      Locals:         0       0       0       0       0
   943 ;;      Temps:          0       0       0       0       0
   944 ;;      Totals:         0       0       0       0       0
   945 ;;Total ram usage:        0 bytes
   946 ;; Hardware stack levels used: 1
   947 ;; Hardware stack levels required when called: 1
   948 ;; This function calls:
   949 ;;		Nothing
   950 ;; This function is called by:
   951 ;;		_main
   952 ;; This function uses a non-reentrant model
   953 ;;
   954                           
   955  07EA                     _setup:	
   956                           ;psect for function _setup
   957                           
   958  07EA                     l1644:	
   959                           ;incstack = 0
   960                           ; Regs used in _setup: [wreg+status,2+status,0]
   961                           
   962                           
   963                           ;main.c: 88:     TRISB=0;
   964  07EA  1683               	bsf	3,5	;RP0=1, select bank1
   965  07EB  1303               	bcf	3,6	;RP1=0, select bank1
   966  07EC  0186               	clrf	6	;volatile
   967                           
   968                           ;main.c: 89:     PORTB=0;
   969  07ED  1283               	bcf	3,5	;RP0=0, select bank0
   970  07EE  1303               	bcf	3,6	;RP1=0, select bank0
   971  07EF  0186               	clrf	6	;volatile
   972  07F0                     l1646:
   973                           
   974                           ;main.c: 90:     OSCCONbits.IRCF= 0b111;
   975  07F0  3070               	movlw	112
   976  07F1  1683               	bsf	3,5	;RP0=1, select bank1
   977  07F2  1303               	bcf	3,6	;RP1=0, select bank1
   978  07F3  048F               	iorwf	15,f	;volatile
   979  07F4                     l1648:
   980                           
   981                           ;main.c: 91:     OSCCONbits.SCS=1;
   982  07F4  140F               	bsf	15,0	;volatile
   983  07F5                     l1650:
   984                           
   985                           ;main.c: 92:     INTCONbits.GIE=1;
   986  07F5  178B               	bsf	11,7	;volatile
   987  07F6                     l1652:
   988                           
   989                           ;main.c: 93:     PIE1bits.ADIE=1;
   990  07F6  170C               	bsf	12,6	;volatile
   991  07F7                     l1654:
   992                           
   993                           ;main.c: 94:     INTCONbits.TMR0IE=1;
   994  07F7  168B               	bsf	11,5	;volatile
   995  07F8                     l1656:
   996                           
   997                           ;main.c: 95:     PIR1bits.ADIF=0;
   998  07F8  1283               	bcf	3,5	;RP0=0, select bank0
   999  07F9  1303               	bcf	3,6	;RP1=0, select bank0
  1000  07FA  130C               	bcf	12,6	;volatile
  1001  07FB                     l88:
  1002  07FB  0008               	return
  1003  07FC                     __end_of_setup:
  1004                           
  1005                           	psect	text3
  1006  0F8A                     __ptext3:	
  1007 ;; *************** function _print *****************
  1008 ;; Defined at:
  1009 ;;		line 121 in file "main.c"
  1010 ;; Parameters:    Size  Location     Type
  1011 ;;  palabra         1    wreg     PTR unsigned char 
  1012 ;;		 -> STR_5(16), STR_4(27), STR_3(27), STR_2(18), 
  1013 ;;		 -> STR_1(22), 
  1014 ;; Auto vars:     Size  Location     Type
  1015 ;;  palabra         1    3[COMMON] PTR unsigned char 
  1016 ;;		 -> STR_5(16), STR_4(27), STR_3(27), STR_2(18), 
  1017 ;;		 -> STR_1(22), 
  1018 ;; Return value:  Size  Location     Type
  1019 ;;                  1    wreg      void 
  1020 ;; Registers used:
  1021 ;;		wreg, fsr0l, fsr0h, status,2, status,0, pclath
  1022 ;; Tracked objects:
  1023 ;;		On entry : 0/0
  1024 ;;		On exit  : 0/0
  1025 ;;		Unchanged: 0/0
  1026 ;; Data sizes:     COMMON   BANK0   BANK1   BANK3   BANK2
  1027 ;;      Params:         0       0       0       0       0
  1028 ;;      Locals:         1       0       0       0       0
  1029 ;;      Temps:          1       0       0       0       0
  1030 ;;      Totals:         2       0       0       0       0
  1031 ;;Total ram usage:        2 bytes
  1032 ;; Hardware stack levels used: 2
  1033 ;; Hardware stack levels required when called: 1
  1034 ;; This function calls:
  1035 ;;		Nothing
  1036 ;; This function is called by:
  1037 ;;		_main
  1038 ;; This function uses a non-reentrant model
  1039 ;;
  1040                           
  1041  0F8A                     _print:	
  1042                           ;psect for function _print
  1043                           
  1044                           
  1045                           ;incstack = 0
  1046                           ; Regs used in _print: [wreg-fsr0h+status,2+status,0+pclath]
  1047                           ;print@palabra stored from wreg
  1048  0F8A  00F3               	movwf	print@palabra
  1049  0F8B                     l1684:
  1050                           
  1051                           ;main.c: 122:     while(*palabra !='\0'){
  1052  0F8B  2F9E               	goto	l1690
  1053  0F8C                     l102:
  1054  0F8C  1283               	bcf	3,5	;RP0=0, select bank0
  1055  0F8D  1303               	bcf	3,6	;RP1=0, select bank0
  1056  0F8E  1E0C               	btfss	12,4	;volatile
  1057  0F8F  2F91               	goto	u2291
  1058  0F90  2F92               	goto	u2290
  1059  0F91                     u2291:
  1060  0F91  2F8C               	goto	l102
  1061  0F92                     u2290:
  1062  0F92                     l1686:
  1063                           
  1064                           ;main.c: 124:         TXREG= *palabra;
  1065  0F92  0873               	movf	print@palabra,w
  1066  0F93  0084               	movwf	4
  1067  0F94  120A  158A  2000  120A  158A  	fcall	stringdir
  1068  0F99  0099               	movwf	25	;volatile
  1069  0F9A                     l1688:
  1070                           
  1071                           ;main.c: 125:         *palabra++;
  1072  0F9A  3001               	movlw	1
  1073  0F9B  00F2               	movwf	??_print
  1074  0F9C  0872               	movf	??_print,w
  1075  0F9D  07F3               	addwf	print@palabra,f
  1076  0F9E                     l1690:
  1077                           
  1078                           ;main.c: 122:     while(*palabra !='\0'){
  1079  0F9E  0873               	movf	print@palabra,w
  1080  0F9F  0084               	movwf	4
  1081  0FA0  120A  158A  2000  120A  158A  	fcall	stringdir
  1082  0FA5  3A00               	xorlw	0
  1083  0FA6  1D03               	skipz
  1084  0FA7  2FA9               	goto	u2301
  1085  0FA8  2FAA               	goto	u2300
  1086  0FA9                     u2301:
  1087  0FA9  2F8C               	goto	l102
  1088  0FAA                     u2300:
  1089  0FAA                     l106:
  1090  0FAA  0008               	return
  1091  0FAB                     __end_of_print:
  1092                           
  1093                           	psect	text4
  1094  0F5C                     __ptext4:	
  1095 ;; *************** function _initUART *****************
  1096 ;; Defined at:
  1097 ;;		line 109 in file "main.c"
  1098 ;; Parameters:    Size  Location     Type
  1099 ;;		None
  1100 ;; Auto vars:     Size  Location     Type
  1101 ;;		None
  1102 ;; Return value:  Size  Location     Type
  1103 ;;                  1    wreg      void 
  1104 ;; Registers used:
  1105 ;;		wreg
  1106 ;; Tracked objects:
  1107 ;;		On entry : 0/0
  1108 ;;		On exit  : 0/0
  1109 ;;		Unchanged: 0/0
  1110 ;; Data sizes:     COMMON   BANK0   BANK1   BANK3   BANK2
  1111 ;;      Params:         0       0       0       0       0
  1112 ;;      Locals:         0       0       0       0       0
  1113 ;;      Temps:          0       0       0       0       0
  1114 ;;      Totals:         0       0       0       0       0
  1115 ;;Total ram usage:        0 bytes
  1116 ;; Hardware stack levels used: 1
  1117 ;; Hardware stack levels required when called: 1
  1118 ;; This function calls:
  1119 ;;		Nothing
  1120 ;; This function is called by:
  1121 ;;		_main
  1122 ;; This function uses a non-reentrant model
  1123 ;;
  1124                           
  1125  0F5C                     _initUART:	
  1126                           ;psect for function _initUART
  1127                           
  1128  0F5C                     l1672:	
  1129                           ;incstack = 0
  1130                           ; Regs used in _initUART: [wreg]
  1131                           
  1132                           
  1133                           ;main.c: 110:     SPBRG=12;
  1134  0F5C  300C               	movlw	12
  1135  0F5D  1683               	bsf	3,5	;RP0=1, select bank1
  1136  0F5E  1303               	bcf	3,6	;RP1=0, select bank1
  1137  0F5F  0099               	movwf	25	;volatile
  1138  0F60                     l1674:
  1139                           
  1140                           ;main.c: 111:     TXSTAbits.SYNC=0;
  1141  0F60  1218               	bcf	24,4	;volatile
  1142  0F61                     l1676:
  1143                           
  1144                           ;main.c: 112:     RCSTAbits.SPEN=1;
  1145  0F61  1283               	bcf	3,5	;RP0=0, select bank0
  1146  0F62  1303               	bcf	3,6	;RP1=0, select bank0
  1147  0F63  1798               	bsf	24,7	;volatile
  1148  0F64                     l1678:
  1149                           
  1150                           ;main.c: 113:     TXSTAbits.TXEN=1;
  1151  0F64  1683               	bsf	3,5	;RP0=1, select bank1
  1152  0F65  1303               	bcf	3,6	;RP1=0, select bank1
  1153  0F66  1698               	bsf	24,5	;volatile
  1154  0F67                     l1680:
  1155                           
  1156                           ;main.c: 114:     PIR1bits.TXIF=0;
  1157  0F67  1283               	bcf	3,5	;RP0=0, select bank0
  1158  0F68  1303               	bcf	3,6	;RP1=0, select bank0
  1159  0F69  120C               	bcf	12,4	;volatile
  1160  0F6A                     l1682:
  1161                           
  1162                           ;main.c: 115:     RCSTAbits.CREN=1;
  1163  0F6A  1618               	bsf	24,4	;volatile
  1164  0F6B                     l94:
  1165  0F6B  0008               	return
  1166  0F6C                     __end_of_initUART:
  1167                           
  1168                           	psect	text5
  1169  0FAB                     __ptext5:	
  1170 ;; *************** function _conversion *****************
  1171 ;; Defined at:
  1172 ;;		line 118 in file "main.c"
  1173 ;; Parameters:    Size  Location     Type
  1174 ;;  voltaje         2   63[BANK0 ] int 
  1175 ;; Auto vars:     Size  Location     Type
  1176 ;;		None
  1177 ;; Return value:  Size  Location     Type
  1178 ;;                  1    wreg      void 
  1179 ;; Registers used:
  1180 ;;		wreg, status,2, status,0, btemp+1, pclath, cstack
  1181 ;; Tracked objects:
  1182 ;;		On entry : 0/0
  1183 ;;		On exit  : 0/0
  1184 ;;		Unchanged: 0/0
  1185 ;; Data sizes:     COMMON   BANK0   BANK1   BANK3   BANK2
  1186 ;;      Params:         0       2       0       0       0
  1187 ;;      Locals:         0       0       0       0       0
  1188 ;;      Temps:          0       0       0       0       0
  1189 ;;      Totals:         0       2       0       0       0
  1190 ;;Total ram usage:        2 bytes
  1191 ;; Hardware stack levels used: 1
  1192 ;; Hardware stack levels required when called: 3
  1193 ;; This function calls:
  1194 ;;		___fladd
  1195 ;;		___flmul
  1196 ;;		___fltol
  1197 ;;		___xxtofl
  1198 ;; This function is called by:
  1199 ;;		_main
  1200 ;; This function uses a non-reentrant model
  1201 ;;
  1202                           
  1203  0FAB                     _conversion:	
  1204                           ;psect for function _conversion
  1205                           
  1206  0FAB                     l1884:	
  1207                           ;incstack = 0
  1208                           ; Regs used in _conversion: [wreg+status,2+status,0+btemp+1+pclath+cstack]
  1209                           
  1210                           
  1211                           ;main.c: 119:     equivalent=(unsigned short)(48+((float)(207)/(255))*(voltaje-0));
  1212  0FAB  1283               	bcf	3,5	;RP0=0, select bank0
  1213  0FAC  1303               	bcf	3,6	;RP1=0, select bank0
  1214  0FAD  085F               	movf	conversion@voltaje,w
  1215  0FAE  00F2               	movwf	___xxtofl@val
  1216  0FAF  0860               	movf	conversion@voltaje+1,w
  1217  0FB0  00F3               	movwf	___xxtofl@val+1
  1218  0FB1  3000               	movlw	0
  1219  0FB2  1BF3               	btfsc	___xxtofl@val+1,7
  1220  0FB3  30FF               	movlw	255
  1221  0FB4  00F4               	movwf	___xxtofl@val+2
  1222  0FB5  00F5               	movwf	___xxtofl@val+3
  1223  0FB6  3001               	movlw	1
  1224  0FB7  120A  118A  2605  120A  158A  	fcall	___xxtofl
  1225  0FBC  0875               	movf	?___xxtofl+3,w
  1226  0FBD  1283               	bcf	3,5	;RP0=0, select bank0
  1227  0FBE  1303               	bcf	3,6	;RP1=0, select bank0
  1228  0FBF  00AD               	movwf	___flmul@a+3
  1229  0FC0  0874               	movf	?___xxtofl+2,w
  1230  0FC1  00AC               	movwf	___flmul@a+2
  1231  0FC2  0873               	movf	?___xxtofl+1,w
  1232  0FC3  00AB               	movwf	___flmul@a+1
  1233  0FC4  0872               	movf	?___xxtofl,w
  1234  0FC5  00AA               	movwf	___flmul@a
  1235  0FC6  303F               	movlw	63
  1236  0FC7  00A9               	movwf	___flmul@b+3
  1237  0FC8  304F               	movlw	79
  1238  0FC9  00A8               	movwf	___flmul@b+2
  1239  0FCA  30CF               	movlw	207
  1240  0FCB  00A7               	movwf	___flmul@b+1
  1241  0FCC  30D0               	movlw	208
  1242  0FCD  00A6               	movwf	___flmul@b
  1243  0FCE  120A  118A  201C  120A  158A  	fcall	___flmul
  1244  0FD3  1283               	bcf	3,5	;RP0=0, select bank0
  1245  0FD4  1303               	bcf	3,6	;RP1=0, select bank0
  1246  0FD5  0829               	movf	?___flmul+3,w
  1247  0FD6  00C7               	movwf	___fladd@a+3
  1248  0FD7  0828               	movf	?___flmul+2,w
  1249  0FD8  00C6               	movwf	___fladd@a+2
  1250  0FD9  0827               	movf	?___flmul+1,w
  1251  0FDA  00C5               	movwf	___fladd@a+1
  1252  0FDB  0826               	movf	?___flmul,w
  1253  0FDC  00C4               	movwf	___fladd@a
  1254  0FDD  3042               	movlw	66
  1255  0FDE  00C3               	movwf	___fladd@b+3
  1256  0FDF  3040               	movlw	64
  1257  0FE0  00C2               	movwf	___fladd@b+2
  1258  0FE1  3000               	movlw	0
  1259  0FE2  00C1               	movwf	___fladd@b+1
  1260  0FE3  3000               	movlw	0
  1261  0FE4  00C0               	movwf	___fladd@b
  1262  0FE5  120A  118A  237D  120A  158A  	fcall	___fladd
  1263  0FEA  1283               	bcf	3,5	;RP0=0, select bank0
  1264  0FEB  1303               	bcf	3,6	;RP1=0, select bank0
  1265  0FEC  0843               	movf	?___fladd+3,w
  1266  0FED  00D7               	movwf	___fltol@f1+3
  1267  0FEE  0842               	movf	?___fladd+2,w
  1268  0FEF  00D6               	movwf	___fltol@f1+2
  1269  0FF0  0841               	movf	?___fladd+1,w
  1270  0FF1  00D5               	movwf	___fltol@f1+1
  1271  0FF2  0840               	movf	?___fladd,w
  1272  0FF3  00D4               	movwf	___fltol@f1
  1273  0FF4  120A  118A  2745  120A  158A  	fcall	___fltol
  1274  0FF9  1283               	bcf	3,5	;RP0=0, select bank0
  1275  0FFA  1303               	bcf	3,6	;RP1=0, select bank0
  1276  0FFB  0855               	movf	?___fltol+1,w
  1277  0FFC  00E4               	movwf	_equivalent+1
  1278  0FFD  0854               	movf	?___fltol,w
  1279  0FFE  00E3               	movwf	_equivalent
  1280  0FFF                     l97:
  1281  0FFF  0008               	return
  1282  1000                     __end_of_conversion:
  1283                           
  1284                           	psect	text6
  1285  0605                     __ptext6:	
  1286 ;; *************** function ___xxtofl *****************
  1287 ;; Defined at:
  1288 ;;		line 10 in file "C:\Program Files\Microchip\xc8\v2.36\pic\sources\c90\common\xxtofl.c"
  1289 ;; Parameters:    Size  Location     Type
  1290 ;;  sign            1    wreg     unsigned char 
  1291 ;;  val             4    2[COMMON] long 
  1292 ;; Auto vars:     Size  Location     Type
  1293 ;;  sign            1    0[BANK0 ] unsigned char 
  1294 ;;  arg             4    2[BANK0 ] unsigned long 
  1295 ;;  exp             1    1[BANK0 ] unsigned char 
  1296 ;; Return value:  Size  Location     Type
  1297 ;;                  4    2[COMMON] unsigned char 
  1298 ;; Registers used:
  1299 ;;		wreg, status,2, status,0
  1300 ;; Tracked objects:
  1301 ;;		On entry : 0/0
  1302 ;;		On exit  : 0/0
  1303 ;;		Unchanged: 0/0
  1304 ;; Data sizes:     COMMON   BANK0   BANK1   BANK3   BANK2
  1305 ;;      Params:         4       0       0       0       0
  1306 ;;      Locals:         0       6       0       0       0
  1307 ;;      Temps:          4       0       0       0       0
  1308 ;;      Totals:         8       6       0       0       0
  1309 ;;Total ram usage:       14 bytes
  1310 ;; Hardware stack levels used: 1
  1311 ;; Hardware stack levels required when called: 1
  1312 ;; This function calls:
  1313 ;;		Nothing
  1314 ;; This function is called by:
  1315 ;;		_conversion
  1316 ;; This function uses a non-reentrant model
  1317 ;;
  1318                           
  1319  0605                     ___xxtofl:	
  1320                           ;psect for function ___xxtofl
  1321                           
  1322                           
  1323                           ;incstack = 0
  1324                           ; Regs used in ___xxtofl: [wreg+status,2+status,0]
  1325                           ;___xxtofl@sign stored from wreg
  1326  0605  1283               	bcf	3,5	;RP0=0, select bank0
  1327  0606  1303               	bcf	3,6	;RP1=0, select bank0
  1328  0607  00A0               	movwf	___xxtofl@sign
  1329  0608                     l1600:
  1330  0608  0820               	movf	___xxtofl@sign,w
  1331  0609  1903               	btfsc	3,2
  1332  060A  2E0C               	goto	u2151
  1333  060B  2E0D               	goto	u2150
  1334  060C                     u2151:
  1335  060C  2E21               	goto	l1606
  1336  060D                     u2150:
  1337  060D                     l1602:
  1338  060D  1FF5               	btfss	___xxtofl@val+3,7
  1339  060E  2E10               	goto	u2161
  1340  060F  2E11               	goto	u2160
  1341  0610                     u2161:
  1342  0610  2E21               	goto	l1606
  1343  0611                     u2160:
  1344  0611                     l1604:
  1345  0611  0972               	comf	___xxtofl@val,w
  1346  0612  00A2               	movwf	___xxtofl@arg
  1347  0613  0973               	comf	___xxtofl@val+1,w
  1348  0614  00A3               	movwf	___xxtofl@arg+1
  1349  0615  0974               	comf	___xxtofl@val+2,w
  1350  0616  00A4               	movwf	___xxtofl@arg+2
  1351  0617  0975               	comf	___xxtofl@val+3,w
  1352  0618  00A5               	movwf	___xxtofl@arg+3
  1353  0619  0AA2               	incf	___xxtofl@arg,f
  1354  061A  1903               	skipnz
  1355  061B  0AA3               	incf	___xxtofl@arg+1,f
  1356  061C  1903               	skipnz
  1357  061D  0AA4               	incf	___xxtofl@arg+2,f
  1358  061E  1903               	skipnz
  1359  061F  0AA5               	incf	___xxtofl@arg+3,f
  1360  0620  2E29               	goto	l625
  1361  0621                     l1606:
  1362  0621  0875               	movf	___xxtofl@val+3,w
  1363  0622  00A5               	movwf	___xxtofl@arg+3
  1364  0623  0874               	movf	___xxtofl@val+2,w
  1365  0624  00A4               	movwf	___xxtofl@arg+2
  1366  0625  0873               	movf	___xxtofl@val+1,w
  1367  0626  00A3               	movwf	___xxtofl@arg+1
  1368  0627  0872               	movf	___xxtofl@val,w
  1369  0628  00A2               	movwf	___xxtofl@arg
  1370  0629                     l625:
  1371  0629  0875               	movf	___xxtofl@val+3,w
  1372  062A  0474               	iorwf	___xxtofl@val+2,w
  1373  062B  0473               	iorwf	___xxtofl@val+1,w
  1374  062C  0472               	iorwf	___xxtofl@val,w
  1375  062D  1D03               	skipz
  1376  062E  2E30               	goto	u2171
  1377  062F  2E31               	goto	u2170
  1378  0630                     u2171:
  1379  0630  2E3A               	goto	l1612
  1380  0631                     u2170:
  1381  0631                     l1608:
  1382  0631  3000               	movlw	0
  1383  0632  00F5               	movwf	?___xxtofl+3
  1384  0633  3000               	movlw	0
  1385  0634  00F4               	movwf	?___xxtofl+2
  1386  0635  3000               	movlw	0
  1387  0636  00F3               	movwf	?___xxtofl+1
  1388  0637  3000               	movlw	0
  1389  0638  00F2               	movwf	?___xxtofl
  1390  0639  2EC0               	goto	l627
  1391  063A                     l1612:
  1392  063A  3096               	movlw	150
  1393  063B  00F6               	movwf	??___xxtofl
  1394  063C  0876               	movf	??___xxtofl,w
  1395  063D  00A1               	movwf	___xxtofl@exp
  1396  063E  2E4C               	goto	l1616
  1397  063F                     l1614:
  1398  063F  3001               	movlw	1
  1399  0640  00F6               	movwf	??___xxtofl
  1400  0641  0876               	movf	??___xxtofl,w
  1401  0642  07A1               	addwf	___xxtofl@exp,f
  1402  0643  3001               	movlw	1
  1403  0644                     u2185:
  1404  0644  1003               	clrc
  1405  0645  0CA5               	rrf	___xxtofl@arg+3,f
  1406  0646  0CA4               	rrf	___xxtofl@arg+2,f
  1407  0647  0CA3               	rrf	___xxtofl@arg+1,f
  1408  0648  0CA2               	rrf	___xxtofl@arg,f
  1409  0649  3EFF               	addlw	-1
  1410  064A  1D03               	skipz
  1411  064B  2E44               	goto	u2185
  1412  064C                     l1616:
  1413  064C  30FE               	movlw	254
  1414  064D  0525               	andwf	___xxtofl@arg+3,w
  1415  064E  1D03               	btfss	3,2
  1416  064F  2E51               	goto	u2191
  1417  0650  2E52               	goto	u2190
  1418  0651                     u2191:
  1419  0651  2E3F               	goto	l1614
  1420  0652                     u2190:
  1421  0652  2E6E               	goto	l631
  1422  0653                     l1618:
  1423  0653  3001               	movlw	1
  1424  0654  00F6               	movwf	??___xxtofl
  1425  0655  0876               	movf	??___xxtofl,w
  1426  0656  07A1               	addwf	___xxtofl@exp,f
  1427  0657                     l1620:
  1428  0657  3001               	movlw	1
  1429  0658  07A2               	addwf	___xxtofl@arg,f
  1430  0659  3000               	movlw	0
  1431  065A  1803               	skipnc
  1432  065B  3001               	movlw	1
  1433  065C  07A3               	addwf	___xxtofl@arg+1,f
  1434  065D  3000               	movlw	0
  1435  065E  1803               	skipnc
  1436  065F  3001               	movlw	1
  1437  0660  07A4               	addwf	___xxtofl@arg+2,f
  1438  0661  3000               	movlw	0
  1439  0662  1803               	skipnc
  1440  0663  3001               	movlw	1
  1441  0664  07A5               	addwf	___xxtofl@arg+3,f
  1442  0665                     l1622:
  1443  0665  3001               	movlw	1
  1444  0666                     u2205:
  1445  0666  1003               	clrc
  1446  0667  0CA5               	rrf	___xxtofl@arg+3,f
  1447  0668  0CA4               	rrf	___xxtofl@arg+2,f
  1448  0669  0CA3               	rrf	___xxtofl@arg+1,f
  1449  066A  0CA2               	rrf	___xxtofl@arg,f
  1450  066B  3EFF               	addlw	-1
  1451  066C  1D03               	skipz
  1452  066D  2E66               	goto	u2205
  1453  066E                     l631:
  1454  066E  30FF               	movlw	255
  1455  066F  0525               	andwf	___xxtofl@arg+3,w
  1456  0670  1D03               	btfss	3,2
  1457  0671  2E73               	goto	u2211
  1458  0672  2E74               	goto	u2210
  1459  0673                     u2211:
  1460  0673  2E53               	goto	l1618
  1461  0674                     u2210:
  1462  0674  2E80               	goto	l1626
  1463  0675                     l1624:
  1464  0675  3001               	movlw	1
  1465  0676  02A1               	subwf	___xxtofl@exp,f
  1466  0677  3001               	movlw	1
  1467  0678  00F6               	movwf	??___xxtofl
  1468  0679                     u2225:
  1469  0679  1003               	clrc
  1470  067A  0DA2               	rlf	___xxtofl@arg,f
  1471  067B  0DA3               	rlf	___xxtofl@arg+1,f
  1472  067C  0DA4               	rlf	___xxtofl@arg+2,f
  1473  067D  0DA5               	rlf	___xxtofl@arg+3,f
  1474  067E  0BF6               	decfsz	??___xxtofl,f
  1475  067F  2E79               	goto	u2225
  1476  0680                     l1626:
  1477  0680  1BA4               	btfsc	___xxtofl@arg+2,7
  1478  0681  2E83               	goto	u2231
  1479  0682  2E84               	goto	u2230
  1480  0683                     u2231:
  1481  0683  2E8A               	goto	l638
  1482  0684                     u2230:
  1483  0684                     l1628:
  1484  0684  3002               	movlw	2
  1485  0685  0221               	subwf	___xxtofl@exp,w
  1486  0686  1803               	skipnc
  1487  0687  2E89               	goto	u2241
  1488  0688  2E8A               	goto	u2240
  1489  0689                     u2241:
  1490  0689  2E75               	goto	l1624
  1491  068A                     u2240:
  1492  068A                     l638:
  1493  068A  1821               	btfsc	___xxtofl@exp,0
  1494  068B  2E8D               	goto	u2251
  1495  068C  2E8E               	goto	u2250
  1496  068D                     u2251:
  1497  068D  2E96               	goto	l639
  1498  068E                     u2250:
  1499  068E                     l1630:
  1500  068E  30FF               	movlw	255
  1501  068F  05A2               	andwf	___xxtofl@arg,f
  1502  0690  30FF               	movlw	255
  1503  0691  05A3               	andwf	___xxtofl@arg+1,f
  1504  0692  307F               	movlw	127
  1505  0693  05A4               	andwf	___xxtofl@arg+2,f
  1506  0694  30FF               	movlw	255
  1507  0695  05A5               	andwf	___xxtofl@arg+3,f
  1508  0696                     l639:
  1509  0696  1003               	clrc
  1510  0697  0CA1               	rrf	___xxtofl@exp,f
  1511  0698                     l1632:
  1512  0698  0821               	movf	___xxtofl@exp,w
  1513  0699  00F6               	movwf	??___xxtofl
  1514  069A  01F7               	clrf	??___xxtofl+1
  1515  069B  01F8               	clrf	??___xxtofl+2
  1516  069C  01F9               	clrf	??___xxtofl+3
  1517  069D  3018               	movlw	24
  1518  069E                     u2265:
  1519  069E  1003               	clrc
  1520  069F  0DF6               	rlf	??___xxtofl,f
  1521  06A0  0DF7               	rlf	??___xxtofl+1,f
  1522  06A1  0DF8               	rlf	??___xxtofl+2,f
  1523  06A2  0DF9               	rlf	??___xxtofl+3,f
  1524  06A3                     u2260:
  1525  06A3  3EFF               	addlw	-1
  1526  06A4  1D03               	skipz
  1527  06A5  2E9E               	goto	u2265
  1528  06A6  0876               	movf	??___xxtofl,w
  1529  06A7  04A2               	iorwf	___xxtofl@arg,f
  1530  06A8  0877               	movf	??___xxtofl+1,w
  1531  06A9  04A3               	iorwf	___xxtofl@arg+1,f
  1532  06AA  0878               	movf	??___xxtofl+2,w
  1533  06AB  04A4               	iorwf	___xxtofl@arg+2,f
  1534  06AC  0879               	movf	??___xxtofl+3,w
  1535  06AD  04A5               	iorwf	___xxtofl@arg+3,f
  1536  06AE                     l1634:
  1537  06AE  0820               	movf	___xxtofl@sign,w
  1538  06AF  1903               	btfsc	3,2
  1539  06B0  2EB2               	goto	u2271
  1540  06B1  2EB3               	goto	u2270
  1541  06B2                     u2271:
  1542  06B2  2EB8               	goto	l1640
  1543  06B3                     u2270:
  1544  06B3                     l1636:
  1545  06B3  1FF5               	btfss	___xxtofl@val+3,7
  1546  06B4  2EB6               	goto	u2281
  1547  06B5  2EB7               	goto	u2280
  1548  06B6                     u2281:
  1549  06B6  2EB8               	goto	l1640
  1550  06B7                     u2280:
  1551  06B7                     l1638:
  1552  06B7  17A5               	bsf	___xxtofl@arg+3,7
  1553  06B8                     l1640:
  1554  06B8  0825               	movf	___xxtofl@arg+3,w
  1555  06B9  00F5               	movwf	?___xxtofl+3
  1556  06BA  0824               	movf	___xxtofl@arg+2,w
  1557  06BB  00F4               	movwf	?___xxtofl+2
  1558  06BC  0823               	movf	___xxtofl@arg+1,w
  1559  06BD  00F3               	movwf	?___xxtofl+1
  1560  06BE  0822               	movf	___xxtofl@arg,w
  1561  06BF  00F2               	movwf	?___xxtofl
  1562  06C0                     l627:
  1563  06C0  0008               	return
  1564  06C1                     __end_of___xxtofl:
  1565                           
  1566                           	psect	text7
  1567  0745                     __ptext7:	
  1568 ;; *************** function ___fltol *****************
  1569 ;; Defined at:
  1570 ;;		line 43 in file "C:\Program Files\Microchip\xc8\v2.36\pic\sources\c90\common\fltol.c"
  1571 ;; Parameters:    Size  Location     Type
  1572 ;;  f1              4   52[BANK0 ] unsigned char 
  1573 ;; Auto vars:     Size  Location     Type
  1574 ;;  exp1            1   62[BANK0 ] unsigned char 
  1575 ;;  sign1           1   61[BANK0 ] unsigned char 
  1576 ;; Return value:  Size  Location     Type
  1577 ;;                  4   52[BANK0 ] long 
  1578 ;; Registers used:
  1579 ;;		wreg, status,2, status,0
  1580 ;; Tracked objects:
  1581 ;;		On entry : 0/0
  1582 ;;		On exit  : 0/0
  1583 ;;		Unchanged: 0/0
  1584 ;; Data sizes:     COMMON   BANK0   BANK1   BANK3   BANK2
  1585 ;;      Params:         0       4       0       0       0
  1586 ;;      Locals:         0       2       0       0       0
  1587 ;;      Temps:          0       5       0       0       0
  1588 ;;      Totals:         0      11       0       0       0
  1589 ;;Total ram usage:       11 bytes
  1590 ;; Hardware stack levels used: 1
  1591 ;; Hardware stack levels required when called: 1
  1592 ;; This function calls:
  1593 ;;		Nothing
  1594 ;; This function is called by:
  1595 ;;		_conversion
  1596 ;; This function uses a non-reentrant model
  1597 ;;
  1598                           
  1599  0745                     ___fltol:	
  1600                           ;psect for function ___fltol
  1601                           
  1602  0745                     l1230:	
  1603                           ;incstack = 0
  1604                           ; Regs used in ___fltol: [wreg+status,2+status,0]
  1605                           
  1606  0745  1003               	clrc
  1607  0746  1283               	bcf	3,5	;RP0=0, select bank0
  1608  0747  1303               	bcf	3,6	;RP1=0, select bank0
  1609  0748  0D56               	rlf	___fltol@f1+2,w
  1610  0749  0D57               	rlf	___fltol@f1+3,w
  1611  074A  00D8               	movwf	??___fltol
  1612  074B  0858               	movf	??___fltol,w
  1613  074C  00DE               	movwf	___fltol@exp1
  1614  074D  085E               	movf	___fltol@exp1,w
  1615  074E  1D03               	btfss	3,2
  1616  074F  2F51               	goto	u1221
  1617  0750  2F52               	goto	u1220
  1618  0751                     u1221:
  1619  0751  2F5B               	goto	l1236
  1620  0752                     u1220:
  1621  0752                     l1232:
  1622  0752  3000               	movlw	0
  1623  0753  00D7               	movwf	?___fltol+3
  1624  0754  3000               	movlw	0
  1625  0755  00D6               	movwf	?___fltol+2
  1626  0756  3000               	movlw	0
  1627  0757  00D5               	movwf	?___fltol+1
  1628  0758  3000               	movlw	0
  1629  0759  00D4               	movwf	?___fltol
  1630  075A  2FC0               	goto	l378
  1631  075B                     l1236:
  1632  075B  0854               	movf	___fltol@f1,w
  1633  075C  00D8               	movwf	??___fltol
  1634  075D  0855               	movf	___fltol@f1+1,w
  1635  075E  00D9               	movwf	??___fltol+1
  1636  075F  0856               	movf	___fltol@f1+2,w
  1637  0760  00DA               	movwf	??___fltol+2
  1638  0761  0857               	movf	___fltol@f1+3,w
  1639  0762  00DB               	movwf	??___fltol+3
  1640  0763  301F               	movlw	31
  1641  0764                     u1235:
  1642  0764  1003               	clrc
  1643  0765  0CDB               	rrf	??___fltol+3,f
  1644  0766  0CDA               	rrf	??___fltol+2,f
  1645  0767  0CD9               	rrf	??___fltol+1,f
  1646  0768  0CD8               	rrf	??___fltol,f
  1647  0769                     u1230:
  1648  0769  3EFF               	addlw	-1
  1649  076A  1D03               	skipz
  1650  076B  2F64               	goto	u1235
  1651  076C  0858               	movf	??___fltol,w
  1652  076D  00DC               	movwf	??___fltol+4
  1653  076E  085C               	movf	??___fltol+4,w
  1654  076F  00DD               	movwf	___fltol@sign1
  1655  0770                     l1238:
  1656  0770  17D6               	bsf	___fltol@f1+2,7
  1657  0771                     l1240:
  1658  0771  30FF               	movlw	255
  1659  0772  05D4               	andwf	___fltol@f1,f
  1660  0773  30FF               	movlw	255
  1661  0774  05D5               	andwf	___fltol@f1+1,f
  1662  0775  30FF               	movlw	255
  1663  0776  05D6               	andwf	___fltol@f1+2,f
  1664  0777  3000               	movlw	0
  1665  0778  05D7               	andwf	___fltol@f1+3,f
  1666  0779                     l1242:
  1667  0779  3096               	movlw	150
  1668  077A  02DE               	subwf	___fltol@exp1,f
  1669  077B                     l1244:
  1670  077B  1FDE               	btfss	___fltol@exp1,7
  1671  077C  2F7E               	goto	u1241
  1672  077D  2F7F               	goto	u1240
  1673  077E                     u1241:
  1674  077E  2F99               	goto	l1254
  1675  077F                     u1240:
  1676  077F                     l1246:
  1677  077F  085E               	movf	___fltol@exp1,w
  1678  0780  3A80               	xorlw	128
  1679  0781  3E97               	addlw	151
  1680  0782  1803               	skipnc
  1681  0783  2F85               	goto	u1251
  1682  0784  2F86               	goto	u1250
  1683  0785                     u1251:
  1684  0785  2F87               	goto	l1252
  1685  0786                     u1250:
  1686  0786  2F52               	goto	l1232
  1687  0787                     l1252:
  1688  0787  3001               	movlw	1
  1689  0788                     u1265:
  1690  0788  1003               	clrc
  1691  0789  0CD7               	rrf	___fltol@f1+3,f
  1692  078A  0CD6               	rrf	___fltol@f1+2,f
  1693  078B  0CD5               	rrf	___fltol@f1+1,f
  1694  078C  0CD4               	rrf	___fltol@f1,f
  1695  078D  3EFF               	addlw	-1
  1696  078E  1D03               	skipz
  1697  078F  2F88               	goto	u1265
  1698  0790  3001               	movlw	1
  1699  0791  00D8               	movwf	??___fltol
  1700  0792  0858               	movf	??___fltol,w
  1701  0793  07DE               	addwf	___fltol@exp1,f
  1702  0794  1D03               	btfss	3,2
  1703  0795  2F97               	goto	u1271
  1704  0796  2F98               	goto	u1270
  1705  0797                     u1271:
  1706  0797  2F87               	goto	l1252
  1707  0798                     u1270:
  1708  0798  2FB0               	goto	l1262
  1709  0799                     l1254:
  1710  0799  3020               	movlw	32
  1711  079A  025E               	subwf	___fltol@exp1,w
  1712  079B  1C03               	skipc
  1713  079C  2F9E               	goto	u1281
  1714  079D  2F9F               	goto	u1280
  1715  079E                     u1281:
  1716  079E  2FAB               	goto	l385
  1717  079F                     u1280:
  1718  079F  2F52               	goto	l1232
  1719  07A0                     l1260:
  1720  07A0  3001               	movlw	1
  1721  07A1  00D8               	movwf	??___fltol
  1722  07A2                     u1295:
  1723  07A2  1003               	clrc
  1724  07A3  0DD4               	rlf	___fltol@f1,f
  1725  07A4  0DD5               	rlf	___fltol@f1+1,f
  1726  07A5  0DD6               	rlf	___fltol@f1+2,f
  1727  07A6  0DD7               	rlf	___fltol@f1+3,f
  1728  07A7  0BD8               	decfsz	??___fltol,f
  1729  07A8  2FA2               	goto	u1295
  1730  07A9  3001               	movlw	1
  1731  07AA  02DE               	subwf	___fltol@exp1,f
  1732  07AB                     l385:
  1733  07AB  085E               	movf	___fltol@exp1,w
  1734  07AC  1D03               	btfss	3,2
  1735  07AD  2FAF               	goto	u1301
  1736  07AE  2FB0               	goto	u1300
  1737  07AF                     u1301:
  1738  07AF  2FA0               	goto	l1260
  1739  07B0                     u1300:
  1740  07B0                     l1262:
  1741  07B0  085D               	movf	___fltol@sign1,w
  1742  07B1  1903               	btfsc	3,2
  1743  07B2  2FB4               	goto	u1311
  1744  07B3  2FB5               	goto	u1310
  1745  07B4                     u1311:
  1746  07B4  2FC0               	goto	l388
  1747  07B5                     u1310:
  1748  07B5                     l1264:
  1749  07B5  09D4               	comf	___fltol@f1,f
  1750  07B6  09D5               	comf	___fltol@f1+1,f
  1751  07B7  09D6               	comf	___fltol@f1+2,f
  1752  07B8  09D7               	comf	___fltol@f1+3,f
  1753  07B9  0AD4               	incf	___fltol@f1,f
  1754  07BA  1903               	skipnz
  1755  07BB  0AD5               	incf	___fltol@f1+1,f
  1756  07BC  1903               	skipnz
  1757  07BD  0AD6               	incf	___fltol@f1+2,f
  1758  07BE  1903               	skipnz
  1759  07BF  0AD7               	incf	___fltol@f1+3,f
  1760  07C0                     l388:
  1761  07C0                     l378:
  1762  07C0  0008               	return
  1763  07C1                     __end_of___fltol:
  1764                           
  1765                           	psect	text8
  1766  001C                     __ptext8:	
  1767 ;; *************** function ___flmul *****************
  1768 ;; Defined at:
  1769 ;;		line 8 in file "C:\Program Files\Microchip\xc8\v2.36\pic\sources\c90\common\sprcmul.c"
  1770 ;; Parameters:    Size  Location     Type
  1771 ;;  b               4    6[BANK0 ] long 
  1772 ;;  a               4   10[BANK0 ] long 
  1773 ;; Auto vars:     Size  Location     Type
  1774 ;;  prod            4   26[BANK0 ] struct .
  1775 ;;  grs             4   21[BANK0 ] unsigned long 
  1776 ;;  temp            2   30[BANK0 ] struct .
  1777 ;;  bexp            1   25[BANK0 ] unsigned char 
  1778 ;;  aexp            1   20[BANK0 ] unsigned char 
  1779 ;;  sign            1   19[BANK0 ] unsigned char 
  1780 ;; Return value:  Size  Location     Type
  1781 ;;                  4    6[BANK0 ] unsigned char 
  1782 ;; Registers used:
  1783 ;;		wreg, status,2, status,0, btemp+1, pclath, cstack
  1784 ;; Tracked objects:
  1785 ;;		On entry : 0/0
  1786 ;;		On exit  : 0/0
  1787 ;;		Unchanged: 0/0
  1788 ;; Data sizes:     COMMON   BANK0   BANK1   BANK3   BANK2
  1789 ;;      Params:         0       8       0       0       0
  1790 ;;      Locals:         0      13       0       0       0
  1791 ;;      Temps:          0       5       0       0       0
  1792 ;;      Totals:         0      26       0       0       0
  1793 ;;Total ram usage:       26 bytes
  1794 ;; Hardware stack levels used: 1
  1795 ;; Hardware stack levels required when called: 2
  1796 ;; This function calls:
  1797 ;;		__Umul8_16
  1798 ;; This function is called by:
  1799 ;;		_conversion
  1800 ;; This function uses a non-reentrant model
  1801 ;;
  1802                           
  1803  001C                     ___flmul:	
  1804                           ;psect for function ___flmul
  1805                           
  1806  001C                     l1744:	
  1807                           ;incstack = 0
  1808                           ; Regs used in ___flmul: [wreg+status,2+status,0+btemp+1+pclath+cstack]
  1809                           
  1810  001C  1283               	bcf	3,5	;RP0=0, select bank0
  1811  001D  1303               	bcf	3,6	;RP1=0, select bank0
  1812  001E  0829               	movf	___flmul@b+3,w
  1813  001F  3980               	andlw	128
  1814  0020  00AE               	movwf	??___flmul
  1815  0021  082E               	movf	??___flmul,w
  1816  0022  00B3               	movwf	___flmul@sign
  1817  0023                     l1746:
  1818  0023  0829               	movf	___flmul@b+3,w
  1819  0024  00AE               	movwf	??___flmul
  1820  0025  072E               	addwf	??___flmul,w
  1821  0026  00AF               	movwf	??___flmul+1
  1822  0027  082F               	movf	??___flmul+1,w
  1823  0028  00B9               	movwf	___flmul@bexp
  1824  0029                     l1748:
  1825  0029  1FA8               	btfss	___flmul@b+2,7
  1826  002A  282C               	goto	u2391
  1827  002B  282D               	goto	u2390
  1828  002C                     u2391:
  1829  002C  282E               	goto	l1752
  1830  002D                     u2390:
  1831  002D                     l1750:
  1832  002D  1439               	bsf	___flmul@bexp,0
  1833  002E                     l1752:
  1834  002E  0839               	movf	___flmul@bexp,w
  1835  002F  1903               	btfsc	3,2
  1836  0030  2832               	goto	u2401
  1837  0031  2833               	goto	u2400
  1838  0032                     u2401:
  1839  0032  2842               	goto	l1760
  1840  0033                     u2400:
  1841  0033                     l1754:
  1842  0033  0A39               	incf	___flmul@bexp,w
  1843  0034  1D03               	btfss	3,2
  1844  0035  2837               	goto	u2411
  1845  0036  2838               	goto	u2410
  1846  0037                     u2411:
  1847  0037  2840               	goto	l1758
  1848  0038                     u2410:
  1849  0038                     l1756:
  1850  0038  3000               	movlw	0
  1851  0039  00A9               	movwf	___flmul@b+3
  1852  003A  3000               	movlw	0
  1853  003B  00A8               	movwf	___flmul@b+2
  1854  003C  3000               	movlw	0
  1855  003D  00A7               	movwf	___flmul@b+1
  1856  003E  3000               	movlw	0
  1857  003F  00A6               	movwf	___flmul@b
  1858  0040                     l1758:
  1859  0040  17A8               	bsf	___flmul@b+2,7
  1860  0041  284A               	goto	l1762
  1861  0042                     l1760:
  1862  0042  3000               	movlw	0
  1863  0043  00A9               	movwf	___flmul@b+3
  1864  0044  3000               	movlw	0
  1865  0045  00A8               	movwf	___flmul@b+2
  1866  0046  3000               	movlw	0
  1867  0047  00A7               	movwf	___flmul@b+1
  1868  0048  3000               	movlw	0
  1869  0049  00A6               	movwf	___flmul@b
  1870  004A                     l1762:
  1871  004A  082D               	movf	___flmul@a+3,w
  1872  004B  3980               	andlw	128
  1873  004C  00AE               	movwf	??___flmul
  1874  004D  082E               	movf	??___flmul,w
  1875  004E  06B3               	xorwf	___flmul@sign,f
  1876  004F                     l1764:
  1877  004F  082D               	movf	___flmul@a+3,w
  1878  0050  00AE               	movwf	??___flmul
  1879  0051  072E               	addwf	??___flmul,w
  1880  0052  00AF               	movwf	??___flmul+1
  1881  0053  082F               	movf	??___flmul+1,w
  1882  0054  00B4               	movwf	___flmul@aexp
  1883  0055                     l1766:
  1884  0055  1FAC               	btfss	___flmul@a+2,7
  1885  0056  2858               	goto	u2421
  1886  0057  2859               	goto	u2420
  1887  0058                     u2421:
  1888  0058  285A               	goto	l1770
  1889  0059                     u2420:
  1890  0059                     l1768:
  1891  0059  1434               	bsf	___flmul@aexp,0
  1892  005A                     l1770:
  1893  005A  0834               	movf	___flmul@aexp,w
  1894  005B  1903               	btfsc	3,2
  1895  005C  285E               	goto	u2431
  1896  005D  285F               	goto	u2430
  1897  005E                     u2431:
  1898  005E  286E               	goto	l1778
  1899  005F                     u2430:
  1900  005F                     l1772:
  1901  005F  0A34               	incf	___flmul@aexp,w
  1902  0060  1D03               	btfss	3,2
  1903  0061  2863               	goto	u2441
  1904  0062  2864               	goto	u2440
  1905  0063                     u2441:
  1906  0063  286C               	goto	l1776
  1907  0064                     u2440:
  1908  0064                     l1774:
  1909  0064  3000               	movlw	0
  1910  0065  00AD               	movwf	___flmul@a+3
  1911  0066  3000               	movlw	0
  1912  0067  00AC               	movwf	___flmul@a+2
  1913  0068  3000               	movlw	0
  1914  0069  00AB               	movwf	___flmul@a+1
  1915  006A  3000               	movlw	0
  1916  006B  00AA               	movwf	___flmul@a
  1917  006C                     l1776:
  1918  006C  17AC               	bsf	___flmul@a+2,7
  1919  006D  2876               	goto	l1780
  1920  006E                     l1778:
  1921  006E  3000               	movlw	0
  1922  006F  00AD               	movwf	___flmul@a+3
  1923  0070  3000               	movlw	0
  1924  0071  00AC               	movwf	___flmul@a+2
  1925  0072  3000               	movlw	0
  1926  0073  00AB               	movwf	___flmul@a+1
  1927  0074  3000               	movlw	0
  1928  0075  00AA               	movwf	___flmul@a
  1929  0076                     l1780:
  1930  0076  0834               	movf	___flmul@aexp,w
  1931  0077  1903               	btfsc	3,2
  1932  0078  287A               	goto	u2451
  1933  0079  287B               	goto	u2450
  1934  007A                     u2451:
  1935  007A  2880               	goto	l1784
  1936  007B                     u2450:
  1937  007B                     l1782:
  1938  007B  0839               	movf	___flmul@bexp,w
  1939  007C  1D03               	btfss	3,2
  1940  007D  287F               	goto	u2461
  1941  007E  2880               	goto	u2460
  1942  007F                     u2461:
  1943  007F  2889               	goto	l1788
  1944  0080                     u2460:
  1945  0080                     l1784:
  1946  0080  3000               	movlw	0
  1947  0081  00A9               	movwf	?___flmul+3
  1948  0082  3000               	movlw	0
  1949  0083  00A8               	movwf	?___flmul+2
  1950  0084  3000               	movlw	0
  1951  0085  00A7               	movwf	?___flmul+1
  1952  0086  3000               	movlw	0
  1953  0087  00A6               	movwf	?___flmul
  1954  0088  2B7C               	goto	l581
  1955  0089                     l1788:
  1956  0089  0826               	movf	___flmul@b,w
  1957  008A  00AE               	movwf	??___flmul
  1958  008B  082E               	movf	??___flmul,w
  1959  008C  00F2               	movwf	__Umul8_16@multiplicand
  1960  008D  082C               	movf	___flmul@a+2,w
  1961  008E  120A  118A  27C1  120A  118A  	fcall	__Umul8_16
  1962  0093  0873               	movf	?__Umul8_16+1,w
  1963  0094  1283               	bcf	3,5	;RP0=0, select bank0
  1964  0095  1303               	bcf	3,6	;RP1=0, select bank0
  1965  0096  00BF               	movwf	___flmul@temp+1
  1966  0097  0872               	movf	?__Umul8_16,w
  1967  0098  00BE               	movwf	___flmul@temp
  1968  0099                     l1790:
  1969  0099  083E               	movf	___flmul@temp,w
  1970  009A  00AE               	movwf	??___flmul
  1971  009B  01AF               	clrf	??___flmul+1
  1972  009C  01B0               	clrf	??___flmul+2
  1973  009D  01B1               	clrf	??___flmul+3
  1974  009E  0831               	movf	??___flmul+3,w
  1975  009F  00B8               	movwf	___flmul@grs+3
  1976  00A0  0830               	movf	??___flmul+2,w
  1977  00A1  00B7               	movwf	___flmul@grs+2
  1978  00A2  082F               	movf	??___flmul+1,w
  1979  00A3  00B6               	movwf	___flmul@grs+1
  1980  00A4  082E               	movf	??___flmul,w
  1981  00A5  00B5               	movwf	___flmul@grs
  1982  00A6                     l1792:
  1983  00A6  083F               	movf	___flmul@temp+1,w
  1984  00A7  00AE               	movwf	??___flmul
  1985  00A8  01AF               	clrf	??___flmul+1
  1986  00A9  01B0               	clrf	??___flmul+2
  1987  00AA  01B1               	clrf	??___flmul+3
  1988  00AB  0831               	movf	??___flmul+3,w
  1989  00AC  00BD               	movwf	___flmul@prod+3
  1990  00AD  0830               	movf	??___flmul+2,w
  1991  00AE  00BC               	movwf	___flmul@prod+2
  1992  00AF  082F               	movf	??___flmul+1,w
  1993  00B0  00BB               	movwf	___flmul@prod+1
  1994  00B1  082E               	movf	??___flmul,w
  1995  00B2  00BA               	movwf	___flmul@prod
  1996  00B3  0827               	movf	___flmul@b+1,w
  1997  00B4  00AE               	movwf	??___flmul
  1998  00B5  082E               	movf	??___flmul,w
  1999  00B6  00F2               	movwf	__Umul8_16@multiplicand
  2000  00B7  082B               	movf	___flmul@a+1,w
  2001  00B8  120A  118A  27C1  120A  118A  	fcall	__Umul8_16
  2002  00BD  0873               	movf	?__Umul8_16+1,w
  2003  00BE  1283               	bcf	3,5	;RP0=0, select bank0
  2004  00BF  1303               	bcf	3,6	;RP1=0, select bank0
  2005  00C0  00BF               	movwf	___flmul@temp+1
  2006  00C1  0872               	movf	?__Umul8_16,w
  2007  00C2  00BE               	movwf	___flmul@temp
  2008  00C3                     l1794:
  2009  00C3  083E               	movf	___flmul@temp,w
  2010  00C4  00AE               	movwf	??___flmul
  2011  00C5  01AF               	clrf	??___flmul+1
  2012  00C6  01B0               	clrf	??___flmul+2
  2013  00C7  01B1               	clrf	??___flmul+3
  2014  00C8  082E               	movf	??___flmul,w
  2015  00C9  07B5               	addwf	___flmul@grs,f
  2016  00CA  082F               	movf	??___flmul+1,w
  2017  00CB  1103               	clrz
  2018  00CC  1803               	skipnc
  2019  00CD  3E01               	addlw	1
  2020  00CE  1903               	skipnz
  2021  00CF  28D1               	goto	u2471
  2022  00D0  07B6               	addwf	___flmul@grs+1,f
  2023  00D1                     u2471:
  2024  00D1  0830               	movf	??___flmul+2,w
  2025  00D2  1103               	clrz
  2026  00D3  1803               	skipnc
  2027  00D4  3E01               	addlw	1
  2028  00D5  1903               	skipnz
  2029  00D6  28D8               	goto	u2472
  2030  00D7  07B7               	addwf	___flmul@grs+2,f
  2031  00D8                     u2472:
  2032  00D8  0831               	movf	??___flmul+3,w
  2033  00D9  1103               	clrz
  2034  00DA  1803               	skipnc
  2035  00DB  3E01               	addlw	1
  2036  00DC  1903               	skipnz
  2037  00DD  28DF               	goto	u2473
  2038  00DE  07B8               	addwf	___flmul@grs+3,f
  2039  00DF                     u2473:
  2040  00DF                     l1796:
  2041  00DF  083F               	movf	___flmul@temp+1,w
  2042  00E0  00AE               	movwf	??___flmul
  2043  00E1  01AF               	clrf	??___flmul+1
  2044  00E2  01B0               	clrf	??___flmul+2
  2045  00E3  01B1               	clrf	??___flmul+3
  2046  00E4  082E               	movf	??___flmul,w
  2047  00E5  07BA               	addwf	___flmul@prod,f
  2048  00E6  082F               	movf	??___flmul+1,w
  2049  00E7  1103               	clrz
  2050  00E8  1803               	skipnc
  2051  00E9  3E01               	addlw	1
  2052  00EA  1903               	skipnz
  2053  00EB  28ED               	goto	u2481
  2054  00EC  07BB               	addwf	___flmul@prod+1,f
  2055  00ED                     u2481:
  2056  00ED  0830               	movf	??___flmul+2,w
  2057  00EE  1103               	clrz
  2058  00EF  1803               	skipnc
  2059  00F0  3E01               	addlw	1
  2060  00F1  1903               	skipnz
  2061  00F2  28F4               	goto	u2482
  2062  00F3  07BC               	addwf	___flmul@prod+2,f
  2063  00F4                     u2482:
  2064  00F4  0831               	movf	??___flmul+3,w
  2065  00F5  1103               	clrz
  2066  00F6  1803               	skipnc
  2067  00F7  3E01               	addlw	1
  2068  00F8  1903               	skipnz
  2069  00F9  28FB               	goto	u2483
  2070  00FA  07BD               	addwf	___flmul@prod+3,f
  2071  00FB                     u2483:
  2072  00FB  0828               	movf	___flmul@b+2,w
  2073  00FC  00AE               	movwf	??___flmul
  2074  00FD  082E               	movf	??___flmul,w
  2075  00FE  00F2               	movwf	__Umul8_16@multiplicand
  2076  00FF  082A               	movf	___flmul@a,w
  2077  0100  120A  118A  27C1  120A  118A  	fcall	__Umul8_16
  2078  0105  0873               	movf	?__Umul8_16+1,w
  2079  0106  1283               	bcf	3,5	;RP0=0, select bank0
  2080  0107  1303               	bcf	3,6	;RP1=0, select bank0
  2081  0108  00BF               	movwf	___flmul@temp+1
  2082  0109  0872               	movf	?__Umul8_16,w
  2083  010A  00BE               	movwf	___flmul@temp
  2084  010B                     l1798:
  2085  010B  083E               	movf	___flmul@temp,w
  2086  010C  00AE               	movwf	??___flmul
  2087  010D  01AF               	clrf	??___flmul+1
  2088  010E  01B0               	clrf	??___flmul+2
  2089  010F  01B1               	clrf	??___flmul+3
  2090  0110  082E               	movf	??___flmul,w
  2091  0111  07B5               	addwf	___flmul@grs,f
  2092  0112  082F               	movf	??___flmul+1,w
  2093  0113  1103               	clrz
  2094  0114  1803               	skipnc
  2095  0115  3E01               	addlw	1
  2096  0116  1903               	skipnz
  2097  0117  2919               	goto	u2491
  2098  0118  07B6               	addwf	___flmul@grs+1,f
  2099  0119                     u2491:
  2100  0119  0830               	movf	??___flmul+2,w
  2101  011A  1103               	clrz
  2102  011B  1803               	skipnc
  2103  011C  3E01               	addlw	1
  2104  011D  1903               	skipnz
  2105  011E  2920               	goto	u2492
  2106  011F  07B7               	addwf	___flmul@grs+2,f
  2107  0120                     u2492:
  2108  0120  0831               	movf	??___flmul+3,w
  2109  0121  1103               	clrz
  2110  0122  1803               	skipnc
  2111  0123  3E01               	addlw	1
  2112  0124  1903               	skipnz
  2113  0125  2927               	goto	u2493
  2114  0126  07B8               	addwf	___flmul@grs+3,f
  2115  0127                     u2493:
  2116  0127                     l1800:
  2117  0127  083F               	movf	___flmul@temp+1,w
  2118  0128  00AE               	movwf	??___flmul
  2119  0129  01AF               	clrf	??___flmul+1
  2120  012A  01B0               	clrf	??___flmul+2
  2121  012B  01B1               	clrf	??___flmul+3
  2122  012C  082E               	movf	??___flmul,w
  2123  012D  07BA               	addwf	___flmul@prod,f
  2124  012E  082F               	movf	??___flmul+1,w
  2125  012F  1103               	clrz
  2126  0130  1803               	skipnc
  2127  0131  3E01               	addlw	1
  2128  0132  1903               	skipnz
  2129  0133  2935               	goto	u2501
  2130  0134  07BB               	addwf	___flmul@prod+1,f
  2131  0135                     u2501:
  2132  0135  0830               	movf	??___flmul+2,w
  2133  0136  1103               	clrz
  2134  0137  1803               	skipnc
  2135  0138  3E01               	addlw	1
  2136  0139  1903               	skipnz
  2137  013A  293C               	goto	u2502
  2138  013B  07BC               	addwf	___flmul@prod+2,f
  2139  013C                     u2502:
  2140  013C  0831               	movf	??___flmul+3,w
  2141  013D  1103               	clrz
  2142  013E  1803               	skipnc
  2143  013F  3E01               	addlw	1
  2144  0140  1903               	skipnz
  2145  0141  2943               	goto	u2503
  2146  0142  07BD               	addwf	___flmul@prod+3,f
  2147  0143                     u2503:
  2148  0143                     l1802:
  2149  0143  3008               	movlw	8
  2150  0144  00AE               	movwf	??___flmul
  2151  0145                     u2515:
  2152  0145  1003               	clrc
  2153  0146  0DB5               	rlf	___flmul@grs,f
  2154  0147  0DB6               	rlf	___flmul@grs+1,f
  2155  0148  0DB7               	rlf	___flmul@grs+2,f
  2156  0149  0DB8               	rlf	___flmul@grs+3,f
  2157  014A  0BAE               	decfsz	??___flmul,f
  2158  014B  2945               	goto	u2515
  2159  014C                     l1804:
  2160  014C  0827               	movf	___flmul@b+1,w
  2161  014D  00AE               	movwf	??___flmul
  2162  014E  082E               	movf	??___flmul,w
  2163  014F  00F2               	movwf	__Umul8_16@multiplicand
  2164  0150  082A               	movf	___flmul@a,w
  2165  0151  120A  118A  27C1  120A  118A  	fcall	__Umul8_16
  2166  0156  0873               	movf	?__Umul8_16+1,w
  2167  0157  1283               	bcf	3,5	;RP0=0, select bank0
  2168  0158  1303               	bcf	3,6	;RP1=0, select bank0
  2169  0159  00BF               	movwf	___flmul@temp+1
  2170  015A  0872               	movf	?__Umul8_16,w
  2171  015B  00BE               	movwf	___flmul@temp
  2172  015C                     l1806:
  2173  015C  083E               	movf	___flmul@temp,w
  2174  015D  00AE               	movwf	??___flmul
  2175  015E  083F               	movf	___flmul@temp+1,w
  2176  015F  00AF               	movwf	??___flmul+1
  2177  0160  01B0               	clrf	??___flmul+2
  2178  0161  01B1               	clrf	??___flmul+3
  2179  0162  082E               	movf	??___flmul,w
  2180  0163  07B5               	addwf	___flmul@grs,f
  2181  0164  082F               	movf	??___flmul+1,w
  2182  0165  1103               	clrz
  2183  0166  1803               	skipnc
  2184  0167  3E01               	addlw	1
  2185  0168  1903               	skipnz
  2186  0169  296B               	goto	u2521
  2187  016A  07B6               	addwf	___flmul@grs+1,f
  2188  016B                     u2521:
  2189  016B  0830               	movf	??___flmul+2,w
  2190  016C  1103               	clrz
  2191  016D  1803               	skipnc
  2192  016E  3E01               	addlw	1
  2193  016F  1903               	skipnz
  2194  0170  2972               	goto	u2522
  2195  0171  07B7               	addwf	___flmul@grs+2,f
  2196  0172                     u2522:
  2197  0172  0831               	movf	??___flmul+3,w
  2198  0173  1103               	clrz
  2199  0174  1803               	skipnc
  2200  0175  3E01               	addlw	1
  2201  0176  1903               	skipnz
  2202  0177  2979               	goto	u2523
  2203  0178  07B8               	addwf	___flmul@grs+3,f
  2204  0179                     u2523:
  2205  0179                     l1808:
  2206  0179  0826               	movf	___flmul@b,w
  2207  017A  00AE               	movwf	??___flmul
  2208  017B  082E               	movf	??___flmul,w
  2209  017C  00F2               	movwf	__Umul8_16@multiplicand
  2210  017D  082B               	movf	___flmul@a+1,w
  2211  017E  120A  118A  27C1  120A  118A  	fcall	__Umul8_16
  2212  0183  0873               	movf	?__Umul8_16+1,w
  2213  0184  1283               	bcf	3,5	;RP0=0, select bank0
  2214  0185  1303               	bcf	3,6	;RP1=0, select bank0
  2215  0186  00BF               	movwf	___flmul@temp+1
  2216  0187  0872               	movf	?__Umul8_16,w
  2217  0188  00BE               	movwf	___flmul@temp
  2218  0189                     l1810:
  2219  0189  083E               	movf	___flmul@temp,w
  2220  018A  00AE               	movwf	??___flmul
  2221  018B  083F               	movf	___flmul@temp+1,w
  2222  018C  00AF               	movwf	??___flmul+1
  2223  018D  01B0               	clrf	??___flmul+2
  2224  018E  01B1               	clrf	??___flmul+3
  2225  018F  082E               	movf	??___flmul,w
  2226  0190  07B5               	addwf	___flmul@grs,f
  2227  0191  082F               	movf	??___flmul+1,w
  2228  0192  1103               	clrz
  2229  0193  1803               	skipnc
  2230  0194  3E01               	addlw	1
  2231  0195  1903               	skipnz
  2232  0196  2998               	goto	u2531
  2233  0197  07B6               	addwf	___flmul@grs+1,f
  2234  0198                     u2531:
  2235  0198  0830               	movf	??___flmul+2,w
  2236  0199  1103               	clrz
  2237  019A  1803               	skipnc
  2238  019B  3E01               	addlw	1
  2239  019C  1903               	skipnz
  2240  019D  299F               	goto	u2532
  2241  019E  07B7               	addwf	___flmul@grs+2,f
  2242  019F                     u2532:
  2243  019F  0831               	movf	??___flmul+3,w
  2244  01A0  1103               	clrz
  2245  01A1  1803               	skipnc
  2246  01A2  3E01               	addlw	1
  2247  01A3  1903               	skipnz
  2248  01A4  29A6               	goto	u2533
  2249  01A5  07B8               	addwf	___flmul@grs+3,f
  2250  01A6                     u2533:
  2251  01A6                     l1812:
  2252  01A6  3008               	movlw	8
  2253  01A7  00AE               	movwf	??___flmul
  2254  01A8                     u2545:
  2255  01A8  1003               	clrc
  2256  01A9  0DB5               	rlf	___flmul@grs,f
  2257  01AA  0DB6               	rlf	___flmul@grs+1,f
  2258  01AB  0DB7               	rlf	___flmul@grs+2,f
  2259  01AC  0DB8               	rlf	___flmul@grs+3,f
  2260  01AD  0BAE               	decfsz	??___flmul,f
  2261  01AE  29A8               	goto	u2545
  2262  01AF  0826               	movf	___flmul@b,w
  2263  01B0  00AE               	movwf	??___flmul
  2264  01B1  082E               	movf	??___flmul,w
  2265  01B2  00F2               	movwf	__Umul8_16@multiplicand
  2266  01B3  082A               	movf	___flmul@a,w
  2267  01B4  120A  118A  27C1  120A  118A  	fcall	__Umul8_16
  2268  01B9  0873               	movf	?__Umul8_16+1,w
  2269  01BA  1283               	bcf	3,5	;RP0=0, select bank0
  2270  01BB  1303               	bcf	3,6	;RP1=0, select bank0
  2271  01BC  00BF               	movwf	___flmul@temp+1
  2272  01BD  0872               	movf	?__Umul8_16,w
  2273  01BE  00BE               	movwf	___flmul@temp
  2274  01BF                     l1814:
  2275  01BF  083E               	movf	___flmul@temp,w
  2276  01C0  00AE               	movwf	??___flmul
  2277  01C1  083F               	movf	___flmul@temp+1,w
  2278  01C2  00AF               	movwf	??___flmul+1
  2279  01C3  01B0               	clrf	??___flmul+2
  2280  01C4  01B1               	clrf	??___flmul+3
  2281  01C5  082E               	movf	??___flmul,w
  2282  01C6  07B5               	addwf	___flmul@grs,f
  2283  01C7  082F               	movf	??___flmul+1,w
  2284  01C8  1103               	clrz
  2285  01C9  1803               	skipnc
  2286  01CA  3E01               	addlw	1
  2287  01CB  1903               	skipnz
  2288  01CC  29CE               	goto	u2551
  2289  01CD  07B6               	addwf	___flmul@grs+1,f
  2290  01CE                     u2551:
  2291  01CE  0830               	movf	??___flmul+2,w
  2292  01CF  1103               	clrz
  2293  01D0  1803               	skipnc
  2294  01D1  3E01               	addlw	1
  2295  01D2  1903               	skipnz
  2296  01D3  29D5               	goto	u2552
  2297  01D4  07B7               	addwf	___flmul@grs+2,f
  2298  01D5                     u2552:
  2299  01D5  0831               	movf	??___flmul+3,w
  2300  01D6  1103               	clrz
  2301  01D7  1803               	skipnc
  2302  01D8  3E01               	addlw	1
  2303  01D9  1903               	skipnz
  2304  01DA  29DC               	goto	u2553
  2305  01DB  07B8               	addwf	___flmul@grs+3,f
  2306  01DC                     u2553:
  2307  01DC                     l1816:
  2308  01DC  0827               	movf	___flmul@b+1,w
  2309  01DD  00AE               	movwf	??___flmul
  2310  01DE  082E               	movf	??___flmul,w
  2311  01DF  00F2               	movwf	__Umul8_16@multiplicand
  2312  01E0  082C               	movf	___flmul@a+2,w
  2313  01E1  120A  118A  27C1  120A  118A  	fcall	__Umul8_16
  2314  01E6  0873               	movf	?__Umul8_16+1,w
  2315  01E7  1283               	bcf	3,5	;RP0=0, select bank0
  2316  01E8  1303               	bcf	3,6	;RP1=0, select bank0
  2317  01E9  00BF               	movwf	___flmul@temp+1
  2318  01EA  0872               	movf	?__Umul8_16,w
  2319  01EB  00BE               	movwf	___flmul@temp
  2320  01EC  083E               	movf	___flmul@temp,w
  2321  01ED  00AE               	movwf	??___flmul
  2322  01EE  083F               	movf	___flmul@temp+1,w
  2323  01EF  00AF               	movwf	??___flmul+1
  2324  01F0  01B0               	clrf	??___flmul+2
  2325  01F1  01B1               	clrf	??___flmul+3
  2326  01F2  082E               	movf	??___flmul,w
  2327  01F3  07BA               	addwf	___flmul@prod,f
  2328  01F4  082F               	movf	??___flmul+1,w
  2329  01F5  1103               	clrz
  2330  01F6  1803               	skipnc
  2331  01F7  3E01               	addlw	1
  2332  01F8  1903               	skipnz
  2333  01F9  29FB               	goto	u2561
  2334  01FA  07BB               	addwf	___flmul@prod+1,f
  2335  01FB                     u2561:
  2336  01FB  0830               	movf	??___flmul+2,w
  2337  01FC  1103               	clrz
  2338  01FD  1803               	skipnc
  2339  01FE  3E01               	addlw	1
  2340  01FF  1903               	skipnz
  2341  0200  2A02               	goto	u2562
  2342  0201  07BC               	addwf	___flmul@prod+2,f
  2343  0202                     u2562:
  2344  0202  0831               	movf	??___flmul+3,w
  2345  0203  1103               	clrz
  2346  0204  1803               	skipnc
  2347  0205  3E01               	addlw	1
  2348  0206  1903               	skipnz
  2349  0207  2A09               	goto	u2563
  2350  0208  07BD               	addwf	___flmul@prod+3,f
  2351  0209                     u2563:
  2352  0209                     l1818:
  2353  0209  0828               	movf	___flmul@b+2,w
  2354  020A  00AE               	movwf	??___flmul
  2355  020B  082E               	movf	??___flmul,w
  2356  020C  00F2               	movwf	__Umul8_16@multiplicand
  2357  020D  082B               	movf	___flmul@a+1,w
  2358  020E  120A  118A  27C1  120A  118A  	fcall	__Umul8_16
  2359  0213  0873               	movf	?__Umul8_16+1,w
  2360  0214  1283               	bcf	3,5	;RP0=0, select bank0
  2361  0215  1303               	bcf	3,6	;RP1=0, select bank0
  2362  0216  00BF               	movwf	___flmul@temp+1
  2363  0217  0872               	movf	?__Umul8_16,w
  2364  0218  00BE               	movwf	___flmul@temp
  2365  0219                     l1820:
  2366  0219  083E               	movf	___flmul@temp,w
  2367  021A  00AE               	movwf	??___flmul
  2368  021B  083F               	movf	___flmul@temp+1,w
  2369  021C  00AF               	movwf	??___flmul+1
  2370  021D  01B0               	clrf	??___flmul+2
  2371  021E  01B1               	clrf	??___flmul+3
  2372  021F  082E               	movf	??___flmul,w
  2373  0220  07BA               	addwf	___flmul@prod,f
  2374  0221  082F               	movf	??___flmul+1,w
  2375  0222  1103               	clrz
  2376  0223  1803               	skipnc
  2377  0224  3E01               	addlw	1
  2378  0225  1903               	skipnz
  2379  0226  2A28               	goto	u2571
  2380  0227  07BB               	addwf	___flmul@prod+1,f
  2381  0228                     u2571:
  2382  0228  0830               	movf	??___flmul+2,w
  2383  0229  1103               	clrz
  2384  022A  1803               	skipnc
  2385  022B  3E01               	addlw	1
  2386  022C  1903               	skipnz
  2387  022D  2A2F               	goto	u2572
  2388  022E  07BC               	addwf	___flmul@prod+2,f
  2389  022F                     u2572:
  2390  022F  0831               	movf	??___flmul+3,w
  2391  0230  1103               	clrz
  2392  0231  1803               	skipnc
  2393  0232  3E01               	addlw	1
  2394  0233  1903               	skipnz
  2395  0234  2A36               	goto	u2573
  2396  0235  07BD               	addwf	___flmul@prod+3,f
  2397  0236                     u2573:
  2398  0236  0828               	movf	___flmul@b+2,w
  2399  0237  00AE               	movwf	??___flmul
  2400  0238  082E               	movf	??___flmul,w
  2401  0239  00F2               	movwf	__Umul8_16@multiplicand
  2402  023A  082C               	movf	___flmul@a+2,w
  2403  023B  120A  118A  27C1  120A  118A  	fcall	__Umul8_16
  2404  0240  0873               	movf	?__Umul8_16+1,w
  2405  0241  1283               	bcf	3,5	;RP0=0, select bank0
  2406  0242  1303               	bcf	3,6	;RP1=0, select bank0
  2407  0243  00BF               	movwf	___flmul@temp+1
  2408  0244  0872               	movf	?__Umul8_16,w
  2409  0245  00BE               	movwf	___flmul@temp
  2410  0246                     l1822:
  2411  0246  083E               	movf	___flmul@temp,w
  2412  0247  00AE               	movwf	??___flmul
  2413  0248  083F               	movf	___flmul@temp+1,w
  2414  0249  00AF               	movwf	??___flmul+1
  2415  024A  01B0               	clrf	??___flmul+2
  2416  024B  01B1               	clrf	??___flmul+3
  2417  024C  3008               	movlw	8
  2418  024D                     u2585:
  2419  024D  1003               	clrc
  2420  024E  0DAE               	rlf	??___flmul,f
  2421  024F  0DAF               	rlf	??___flmul+1,f
  2422  0250  0DB0               	rlf	??___flmul+2,f
  2423  0251  0DB1               	rlf	??___flmul+3,f
  2424  0252                     u2580:
  2425  0252  3EFF               	addlw	-1
  2426  0253  1D03               	skipz
  2427  0254  2A4D               	goto	u2585
  2428  0255  082E               	movf	??___flmul,w
  2429  0256  07BA               	addwf	___flmul@prod,f
  2430  0257  082F               	movf	??___flmul+1,w
  2431  0258  1103               	clrz
  2432  0259  1803               	skipnc
  2433  025A  3E01               	addlw	1
  2434  025B  1903               	skipnz
  2435  025C  2A5E               	goto	u2591
  2436  025D  07BB               	addwf	___flmul@prod+1,f
  2437  025E                     u2591:
  2438  025E  0830               	movf	??___flmul+2,w
  2439  025F  1103               	clrz
  2440  0260  1803               	skipnc
  2441  0261  3E01               	addlw	1
  2442  0262  1903               	skipnz
  2443  0263  2A65               	goto	u2592
  2444  0264  07BC               	addwf	___flmul@prod+2,f
  2445  0265                     u2592:
  2446  0265  0831               	movf	??___flmul+3,w
  2447  0266  1103               	clrz
  2448  0267  1803               	skipnc
  2449  0268  3E01               	addlw	1
  2450  0269  1903               	skipnz
  2451  026A  2A6C               	goto	u2593
  2452  026B  07BD               	addwf	___flmul@prod+3,f
  2453  026C                     u2593:
  2454  026C                     l1824:
  2455  026C  0835               	movf	___flmul@grs,w
  2456  026D  00AE               	movwf	??___flmul
  2457  026E  0836               	movf	___flmul@grs+1,w
  2458  026F  00AF               	movwf	??___flmul+1
  2459  0270  0837               	movf	___flmul@grs+2,w
  2460  0271  00B0               	movwf	??___flmul+2
  2461  0272  0838               	movf	___flmul@grs+3,w
  2462  0273  00B1               	movwf	??___flmul+3
  2463  0274  3018               	movlw	24
  2464  0275                     u2605:
  2465  0275  1003               	clrc
  2466  0276  0CB1               	rrf	??___flmul+3,f
  2467  0277  0CB0               	rrf	??___flmul+2,f
  2468  0278  0CAF               	rrf	??___flmul+1,f
  2469  0279  0CAE               	rrf	??___flmul,f
  2470  027A                     u2600:
  2471  027A  3EFF               	addlw	-1
  2472  027B  1D03               	skipz
  2473  027C  2A75               	goto	u2605
  2474  027D  082E               	movf	??___flmul,w
  2475  027E  07BA               	addwf	___flmul@prod,f
  2476  027F  082F               	movf	??___flmul+1,w
  2477  0280  1103               	clrz
  2478  0281  1803               	skipnc
  2479  0282  3E01               	addlw	1
  2480  0283  1903               	skipnz
  2481  0284  2A86               	goto	u2611
  2482  0285  07BB               	addwf	___flmul@prod+1,f
  2483  0286                     u2611:
  2484  0286  0830               	movf	??___flmul+2,w
  2485  0287  1103               	clrz
  2486  0288  1803               	skipnc
  2487  0289  3E01               	addlw	1
  2488  028A  1903               	skipnz
  2489  028B  2A8D               	goto	u2612
  2490  028C  07BC               	addwf	___flmul@prod+2,f
  2491  028D                     u2612:
  2492  028D  0831               	movf	??___flmul+3,w
  2493  028E  1103               	clrz
  2494  028F  1803               	skipnc
  2495  0290  3E01               	addlw	1
  2496  0291  1903               	skipnz
  2497  0292  2A94               	goto	u2613
  2498  0293  07BD               	addwf	___flmul@prod+3,f
  2499  0294                     u2613:
  2500  0294                     l1826:
  2501  0294  3008               	movlw	8
  2502  0295  00AE               	movwf	??___flmul
  2503  0296                     u2625:
  2504  0296  1003               	clrc
  2505  0297  0DB5               	rlf	___flmul@grs,f
  2506  0298  0DB6               	rlf	___flmul@grs+1,f
  2507  0299  0DB7               	rlf	___flmul@grs+2,f
  2508  029A  0DB8               	rlf	___flmul@grs+3,f
  2509  029B  0BAE               	decfsz	??___flmul,f
  2510  029C  2A96               	goto	u2625
  2511  029D                     l1828:
  2512  029D  0839               	movf	___flmul@bexp,w
  2513  029E  0734               	addwf	___flmul@aexp,w
  2514  029F  00AE               	movwf	??___flmul
  2515  02A0  01AF               	clrf	??___flmul+1
  2516  02A1  0DAF               	rlf	??___flmul+1,f
  2517  02A2  082E               	movf	??___flmul,w
  2518  02A3  3E82               	addlw	130
  2519  02A4  00BE               	movwf	___flmul@temp
  2520  02A5  082F               	movf	??___flmul+1,w
  2521  02A6  1803               	skipnc
  2522  02A7  3E01               	addlw	1
  2523  02A8  3EFF               	addlw	255
  2524  02A9  00BF               	movwf	___flmul@temp+1
  2525  02AA  2AC8               	goto	l1840
  2526  02AB                     l1830:
  2527  02AB  3001               	movlw	1
  2528  02AC  00AE               	movwf	??___flmul
  2529  02AD                     u2635:
  2530  02AD  1003               	clrc
  2531  02AE  0DBA               	rlf	___flmul@prod,f
  2532  02AF  0DBB               	rlf	___flmul@prod+1,f
  2533  02B0  0DBC               	rlf	___flmul@prod+2,f
  2534  02B1  0DBD               	rlf	___flmul@prod+3,f
  2535  02B2  0BAE               	decfsz	??___flmul,f
  2536  02B3  2AAD               	goto	u2635
  2537  02B4                     l1832:
  2538  02B4  1FB8               	btfss	___flmul@grs+3,7
  2539  02B5  2AB7               	goto	u2641
  2540  02B6  2AB8               	goto	u2640
  2541  02B7                     u2641:
  2542  02B7  2AB9               	goto	l1836
  2543  02B8                     u2640:
  2544  02B8                     l1834:
  2545  02B8  143A               	bsf	___flmul@prod,0
  2546  02B9                     l1836:
  2547  02B9  3001               	movlw	1
  2548  02BA  00AE               	movwf	??___flmul
  2549  02BB                     u2655:
  2550  02BB  1003               	clrc
  2551  02BC  0DB5               	rlf	___flmul@grs,f
  2552  02BD  0DB6               	rlf	___flmul@grs+1,f
  2553  02BE  0DB7               	rlf	___flmul@grs+2,f
  2554  02BF  0DB8               	rlf	___flmul@grs+3,f
  2555  02C0  0BAE               	decfsz	??___flmul,f
  2556  02C1  2ABB               	goto	u2655
  2557  02C2                     l1838:
  2558  02C2  30FF               	movlw	255
  2559  02C3  07BE               	addwf	___flmul@temp,f
  2560  02C4  1803               	skipnc
  2561  02C5  0ABF               	incf	___flmul@temp+1,f
  2562  02C6  30FF               	movlw	255
  2563  02C7  07BF               	addwf	___flmul@temp+1,f
  2564  02C8                     l1840:
  2565  02C8  1FBC               	btfss	___flmul@prod+2,7
  2566  02C9  2ACB               	goto	u2661
  2567  02CA  2ACC               	goto	u2660
  2568  02CB                     u2661:
  2569  02CB  2AAB               	goto	l1830
  2570  02CC                     u2660:
  2571  02CC                     l1842:
  2572  02CC  01B4               	clrf	___flmul@aexp
  2573  02CD                     l1844:
  2574  02CD  1FB8               	btfss	___flmul@grs+3,7
  2575  02CE  2AD0               	goto	u2671
  2576  02CF  2AD1               	goto	u2670
  2577  02D0                     u2671:
  2578  02D0  2AED               	goto	l1852
  2579  02D1                     u2670:
  2580  02D1                     l1846:
  2581  02D1  30FF               	movlw	255
  2582  02D2  0535               	andwf	___flmul@grs,w
  2583  02D3  00AE               	movwf	??___flmul
  2584  02D4  30FF               	movlw	255
  2585  02D5  0536               	andwf	___flmul@grs+1,w
  2586  02D6  00AF               	movwf	??___flmul+1
  2587  02D7  30FF               	movlw	255
  2588  02D8  0537               	andwf	___flmul@grs+2,w
  2589  02D9  00B0               	movwf	??___flmul+2
  2590  02DA  307F               	movlw	127
  2591  02DB  0538               	andwf	___flmul@grs+3,w
  2592  02DC  00B1               	movwf	??___flmul+3
  2593  02DD  0831               	movf	??___flmul+3,w
  2594  02DE  0430               	iorwf	??___flmul+2,w
  2595  02DF  042F               	iorwf	??___flmul+1,w
  2596  02E0  042E               	iorwf	??___flmul,w
  2597  02E1  1903               	skipnz
  2598  02E2  2AE4               	goto	u2681
  2599  02E3  2AE5               	goto	u2680
  2600  02E4                     u2681:
  2601  02E4  2AE8               	goto	l587
  2602  02E5                     u2680:
  2603  02E5                     l1848:
  2604  02E5  01B4               	clrf	___flmul@aexp
  2605  02E6  0AB4               	incf	___flmul@aexp,f
  2606  02E7  2AED               	goto	l1852
  2607  02E8                     l587:
  2608  02E8  1C3A               	btfss	___flmul@prod,0
  2609  02E9  2AEB               	goto	u2691
  2610  02EA  2AEC               	goto	u2690
  2611  02EB                     u2691:
  2612  02EB  2AED               	goto	l1852
  2613  02EC                     u2690:
  2614  02EC  2AE5               	goto	l1848
  2615  02ED                     l1852:
  2616  02ED  0834               	movf	___flmul@aexp,w
  2617  02EE  1903               	btfsc	3,2
  2618  02EF  2AF1               	goto	u2701
  2619  02F0  2AF2               	goto	u2700
  2620  02F1                     u2701:
  2621  02F1  2B23               	goto	l1862
  2622  02F2                     u2700:
  2623  02F2                     l1854:
  2624  02F2  3001               	movlw	1
  2625  02F3  07BA               	addwf	___flmul@prod,f
  2626  02F4  3000               	movlw	0
  2627  02F5  1803               	skipnc
  2628  02F6  3001               	movlw	1
  2629  02F7  07BB               	addwf	___flmul@prod+1,f
  2630  02F8  3000               	movlw	0
  2631  02F9  1803               	skipnc
  2632  02FA  3001               	movlw	1
  2633  02FB  07BC               	addwf	___flmul@prod+2,f
  2634  02FC  3000               	movlw	0
  2635  02FD  1803               	skipnc
  2636  02FE  3001               	movlw	1
  2637  02FF  07BD               	addwf	___flmul@prod+3,f
  2638  0300                     l1856:
  2639  0300  1C3D               	btfss	___flmul@prod+3,0
  2640  0301  2B03               	goto	u2711
  2641  0302  2B04               	goto	u2710
  2642  0303                     u2711:
  2643  0303  2B23               	goto	l1862
  2644  0304                     u2710:
  2645  0304                     l1858:
  2646  0304  083A               	movf	___flmul@prod,w
  2647  0305  00AE               	movwf	??___flmul
  2648  0306  083B               	movf	___flmul@prod+1,w
  2649  0307  00AF               	movwf	??___flmul+1
  2650  0308  083C               	movf	___flmul@prod+2,w
  2651  0309  00B0               	movwf	??___flmul+2
  2652  030A  083D               	movf	___flmul@prod+3,w
  2653  030B  00B1               	movwf	??___flmul+3
  2654  030C  3001               	movlw	1
  2655  030D  00B2               	movwf	??___flmul+4
  2656  030E                     u2725:
  2657  030E  0D31               	rlf	??___flmul+3,w
  2658  030F  0CB1               	rrf	??___flmul+3,f
  2659  0310  0CB0               	rrf	??___flmul+2,f
  2660  0311  0CAF               	rrf	??___flmul+1,f
  2661  0312  0CAE               	rrf	??___flmul,f
  2662  0313                     u2720:
  2663  0313  0BB2               	decfsz	??___flmul+4,f
  2664  0314  2B0E               	goto	u2725
  2665  0315  0831               	movf	??___flmul+3,w
  2666  0316  00BD               	movwf	___flmul@prod+3
  2667  0317  0830               	movf	??___flmul+2,w
  2668  0318  00BC               	movwf	___flmul@prod+2
  2669  0319  082F               	movf	??___flmul+1,w
  2670  031A  00BB               	movwf	___flmul@prod+1
  2671  031B  082E               	movf	??___flmul,w
  2672  031C  00BA               	movwf	___flmul@prod
  2673  031D                     l1860:
  2674  031D  3001               	movlw	1
  2675  031E  07BE               	addwf	___flmul@temp,f
  2676  031F  1803               	skipnc
  2677  0320  0ABF               	incf	___flmul@temp+1,f
  2678  0321  3000               	movlw	0
  2679  0322  07BF               	addwf	___flmul@temp+1,f
  2680  0323                     l1862:
  2681  0323  083F               	movf	___flmul@temp+1,w
  2682  0324  3A80               	xorlw	128
  2683  0325  00FF               	movwf	btemp+1
  2684  0326  3080               	movlw	128
  2685  0327  027F               	subwf	btemp+1,w
  2686  0328  1D03               	skipz
  2687  0329  2B2C               	goto	u2735
  2688  032A  30FF               	movlw	255
  2689  032B  023E               	subwf	___flmul@temp,w
  2690  032C                     u2735:
  2691  032C  1C03               	skipc
  2692  032D  2B2F               	goto	u2731
  2693  032E  2B30               	goto	u2730
  2694  032F                     u2731:
  2695  032F  2B3B               	goto	l1866
  2696  0330                     u2730:
  2697  0330                     l1864:
  2698  0330  307F               	movlw	127
  2699  0331  1283               	bcf	3,5	;RP0=0, select bank0
  2700  0332  1303               	bcf	3,6	;RP1=0, select bank0
  2701  0333  00BD               	movwf	___flmul@prod+3
  2702  0334  3080               	movlw	128
  2703  0335  00BC               	movwf	___flmul@prod+2
  2704  0336  3000               	movlw	0
  2705  0337  00BB               	movwf	___flmul@prod+1
  2706  0338  3000               	movlw	0
  2707  0339  00BA               	movwf	___flmul@prod
  2708  033A  2B70               	goto	l593
  2709  033B                     l1866:
  2710  033B  1283               	bcf	3,5	;RP0=0, select bank0
  2711  033C  1303               	bcf	3,6	;RP1=0, select bank0
  2712  033D  083F               	movf	___flmul@temp+1,w
  2713  033E  3A80               	xorlw	128
  2714  033F  00FF               	movwf	btemp+1
  2715  0340  3080               	movlw	128
  2716  0341  027F               	subwf	btemp+1,w
  2717  0342  1D03               	skipz
  2718  0343  2B46               	goto	u2745
  2719  0344  3001               	movlw	1
  2720  0345  023E               	subwf	___flmul@temp,w
  2721  0346                     u2745:
  2722  0346  1803               	skipnc
  2723  0347  2B49               	goto	u2741
  2724  0348  2B4A               	goto	u2740
  2725  0349                     u2741:
  2726  0349  2B56               	goto	l1872
  2727  034A                     u2740:
  2728  034A                     l1868:
  2729  034A  3000               	movlw	0
  2730  034B  1283               	bcf	3,5	;RP0=0, select bank0
  2731  034C  1303               	bcf	3,6	;RP1=0, select bank0
  2732  034D  00BD               	movwf	___flmul@prod+3
  2733  034E  3000               	movlw	0
  2734  034F  00BC               	movwf	___flmul@prod+2
  2735  0350  3000               	movlw	0
  2736  0351  00BB               	movwf	___flmul@prod+1
  2737  0352  3000               	movlw	0
  2738  0353  00BA               	movwf	___flmul@prod
  2739  0354                     l1870:
  2740  0354  01B3               	clrf	___flmul@sign
  2741  0355  2B70               	goto	l593
  2742  0356                     l1872:
  2743  0356  1283               	bcf	3,5	;RP0=0, select bank0
  2744  0357  1303               	bcf	3,6	;RP1=0, select bank0
  2745  0358  083E               	movf	___flmul@temp,w
  2746  0359  00AE               	movwf	??___flmul
  2747  035A  082E               	movf	??___flmul,w
  2748  035B  00B9               	movwf	___flmul@bexp
  2749  035C  30FF               	movlw	255
  2750  035D  05BA               	andwf	___flmul@prod,f
  2751  035E  30FF               	movlw	255
  2752  035F  05BB               	andwf	___flmul@prod+1,f
  2753  0360  307F               	movlw	127
  2754  0361  05BC               	andwf	___flmul@prod+2,f
  2755  0362  3000               	movlw	0
  2756  0363  05BD               	andwf	___flmul@prod+3,f
  2757  0364                     l1874:
  2758  0364  1C39               	btfss	___flmul@bexp,0
  2759  0365  2B67               	goto	u2751
  2760  0366  2B68               	goto	u2750
  2761  0367                     u2751:
  2762  0367  2B69               	goto	l1878
  2763  0368                     u2750:
  2764  0368                     l1876:
  2765  0368  17BC               	bsf	___flmul@prod+2,7
  2766  0369                     l1878:
  2767  0369  0839               	movf	___flmul@bexp,w
  2768  036A  00AE               	movwf	??___flmul
  2769  036B  1003               	clrc
  2770  036C  0C2E               	rrf	??___flmul,w
  2771  036D  00AF               	movwf	??___flmul+1
  2772  036E  082F               	movf	??___flmul+1,w
  2773  036F  00BD               	movwf	___flmul@prod+3
  2774  0370                     l593:
  2775  0370  0833               	movf	___flmul@sign,w
  2776  0371  00AE               	movwf	??___flmul
  2777  0372  082E               	movf	??___flmul,w
  2778  0373  04BD               	iorwf	___flmul@prod+3,f
  2779  0374                     l1880:
  2780  0374  083D               	movf	___flmul@prod+3,w
  2781  0375  00A9               	movwf	?___flmul+3
  2782  0376  083C               	movf	___flmul@prod+2,w
  2783  0377  00A8               	movwf	?___flmul+2
  2784  0378  083B               	movf	___flmul@prod+1,w
  2785  0379  00A7               	movwf	?___flmul+1
  2786  037A  083A               	movf	___flmul@prod,w
  2787  037B  00A6               	movwf	?___flmul
  2788  037C                     l581:
  2789  037C  0008               	return
  2790  037D                     __end_of___flmul:
  2791                           
  2792                           	psect	text9
  2793  07C1                     __ptext9:	
  2794 ;; *************** function __Umul8_16 *****************
  2795 ;; Defined at:
  2796 ;;		line 4 in file "C:\Program Files\Microchip\xc8\v2.36\pic\sources\c90\common\Umul8_16.c"
  2797 ;; Parameters:    Size  Location     Type
  2798 ;;  multiplier      1    wreg     unsigned char 
  2799 ;;  multiplicand    1    2[COMMON] unsigned char 
  2800 ;; Auto vars:     Size  Location     Type
  2801 ;;  multiplier      1    4[BANK0 ] unsigned char 
  2802 ;;  word_mpld       2    2[BANK0 ] unsigned int 
  2803 ;;  product         2    0[BANK0 ] unsigned int 
  2804 ;; Return value:  Size  Location     Type
  2805 ;;                  2    2[COMMON] unsigned int 
  2806 ;; Registers used:
  2807 ;;		wreg, status,2, status,0
  2808 ;; Tracked objects:
  2809 ;;		On entry : 0/0
  2810 ;;		On exit  : 0/0
  2811 ;;		Unchanged: 0/0
  2812 ;; Data sizes:     COMMON   BANK0   BANK1   BANK3   BANK2
  2813 ;;      Params:         2       0       0       0       0
  2814 ;;      Locals:         0       5       0       0       0
  2815 ;;      Temps:          2       0       0       0       0
  2816 ;;      Totals:         4       5       0       0       0
  2817 ;;Total ram usage:        9 bytes
  2818 ;; Hardware stack levels used: 1
  2819 ;; Hardware stack levels required when called: 1
  2820 ;; This function calls:
  2821 ;;		Nothing
  2822 ;; This function is called by:
  2823 ;;		___flmul
  2824 ;; This function uses a non-reentrant model
  2825 ;;
  2826                           
  2827  07C1                     __Umul8_16:	
  2828                           ;psect for function __Umul8_16
  2829                           
  2830                           
  2831                           ;incstack = 0
  2832                           ; Regs used in __Umul8_16: [wreg+status,2+status,0]
  2833                           ;__Umul8_16@multiplier stored from wreg
  2834  07C1  1283               	bcf	3,5	;RP0=0, select bank0
  2835  07C2  1303               	bcf	3,6	;RP1=0, select bank0
  2836  07C3  00A4               	movwf	__Umul8_16@multiplier
  2837  07C4                     l1730:
  2838  07C4  01A0               	clrf	__Umul8_16@product
  2839  07C5  01A1               	clrf	__Umul8_16@product+1
  2840  07C6                     l1732:
  2841  07C6  0872               	movf	__Umul8_16@multiplicand,w
  2842  07C7  00F4               	movwf	??__Umul8_16
  2843  07C8  01F5               	clrf	??__Umul8_16+1
  2844  07C9  0874               	movf	??__Umul8_16,w
  2845  07CA  00A2               	movwf	__Umul8_16@word_mpld
  2846  07CB  0875               	movf	??__Umul8_16+1,w
  2847  07CC  00A3               	movwf	__Umul8_16@word_mpld+1
  2848  07CD                     l1734:
  2849  07CD  1C24               	btfss	__Umul8_16@multiplier,0
  2850  07CE  2FD0               	goto	u2361
  2851  07CF  2FD1               	goto	u2360
  2852  07D0                     u2361:
  2853  07D0  2FD7               	goto	l600
  2854  07D1                     u2360:
  2855  07D1                     l1736:
  2856  07D1  0822               	movf	__Umul8_16@word_mpld,w
  2857  07D2  07A0               	addwf	__Umul8_16@product,f
  2858  07D3  1803               	skipnc
  2859  07D4  0AA1               	incf	__Umul8_16@product+1,f
  2860  07D5  0823               	movf	__Umul8_16@word_mpld+1,w
  2861  07D6  07A1               	addwf	__Umul8_16@product+1,f
  2862  07D7                     l600:
  2863  07D7  3001               	movlw	1
  2864  07D8                     u2375:
  2865  07D8  1003               	clrc
  2866  07D9  0DA2               	rlf	__Umul8_16@word_mpld,f
  2867  07DA  0DA3               	rlf	__Umul8_16@word_mpld+1,f
  2868  07DB  3EFF               	addlw	-1
  2869  07DC  1D03               	skipz
  2870  07DD  2FD8               	goto	u2375
  2871  07DE  1003               	clrc
  2872  07DF  0CA4               	rrf	__Umul8_16@multiplier,f
  2873  07E0                     l1738:
  2874  07E0  0824               	movf	__Umul8_16@multiplier,w
  2875  07E1  1D03               	btfss	3,2
  2876  07E2  2FE4               	goto	u2381
  2877  07E3  2FE5               	goto	u2380
  2878  07E4                     u2381:
  2879  07E4  2FCD               	goto	l1734
  2880  07E5                     u2380:
  2881  07E5                     l1740:
  2882  07E5  0821               	movf	__Umul8_16@product+1,w
  2883  07E6  00F3               	movwf	?__Umul8_16+1
  2884  07E7  0820               	movf	__Umul8_16@product,w
  2885  07E8  00F2               	movwf	?__Umul8_16
  2886  07E9                     l602:
  2887  07E9  0008               	return
  2888  07EA                     __end_of__Umul8_16:
  2889                           
  2890                           	psect	text10
  2891  037D                     __ptext10:	
  2892 ;; *************** function ___fladd *****************
  2893 ;; Defined at:
  2894 ;;		line 10 in file "C:\Program Files\Microchip\xc8\v2.36\pic\sources\c90\common\sprcadd.c"
  2895 ;; Parameters:    Size  Location     Type
  2896 ;;  b               4   32[BANK0 ] unsigned int 
  2897 ;;  a               4   36[BANK0 ] unsigned int 
  2898 ;; Auto vars:     Size  Location     Type
  2899 ;;  grs             1   51[BANK0 ] unsigned char 
  2900 ;;  bexp            1   50[BANK0 ] unsigned char 
  2901 ;;  aexp            1   49[BANK0 ] unsigned char 
  2902 ;;  signs           1   48[BANK0 ] unsigned char 
  2903 ;; Return value:  Size  Location     Type
  2904 ;;                  4   32[BANK0 ] unsigned char 
  2905 ;; Registers used:
  2906 ;;		wreg, status,2, status,0, btemp+1
  2907 ;; Tracked objects:
  2908 ;;		On entry : 0/0
  2909 ;;		On exit  : 0/0
  2910 ;;		Unchanged: 0/0
  2911 ;; Data sizes:     COMMON   BANK0   BANK1   BANK3   BANK2
  2912 ;;      Params:         0       8       0       0       0
  2913 ;;      Locals:         0       4       0       0       0
  2914 ;;      Temps:          0       8       0       0       0
  2915 ;;      Totals:         0      20       0       0       0
  2916 ;;Total ram usage:       20 bytes
  2917 ;; Hardware stack levels used: 1
  2918 ;; Hardware stack levels required when called: 1
  2919 ;; This function calls:
  2920 ;;		Nothing
  2921 ;; This function is called by:
  2922 ;;		_conversion
  2923 ;; This function uses a non-reentrant model
  2924 ;;
  2925                           
  2926  037D                     ___fladd:	
  2927                           ;psect for function ___fladd
  2928                           
  2929  037D                     l1266:	
  2930                           ;incstack = 0
  2931                           ; Regs used in ___fladd: [wreg+status,2+status,0+btemp+1]
  2932                           
  2933  037D  1283               	bcf	3,5	;RP0=0, select bank0
  2934  037E  1303               	bcf	3,6	;RP1=0, select bank0
  2935  037F  0843               	movf	___fladd@b+3,w
  2936  0380  3980               	andlw	128
  2937  0381  00C8               	movwf	??___fladd
  2938  0382  0848               	movf	??___fladd,w
  2939  0383  00D0               	movwf	___fladd@signs
  2940  0384                     l1268:
  2941  0384  0843               	movf	___fladd@b+3,w
  2942  0385  00C8               	movwf	??___fladd
  2943  0386  0748               	addwf	??___fladd,w
  2944  0387  00C9               	movwf	??___fladd+1
  2945  0388  0849               	movf	??___fladd+1,w
  2946  0389  00D2               	movwf	___fladd@bexp
  2947  038A                     l1270:
  2948  038A  1FC2               	btfss	___fladd@b+2,7
  2949  038B  2B8D               	goto	u1321
  2950  038C  2B8E               	goto	u1320
  2951  038D                     u1321:
  2952  038D  2B8F               	goto	l1274
  2953  038E                     u1320:
  2954  038E                     l1272:
  2955  038E  1452               	bsf	___fladd@bexp,0
  2956  038F                     l1274:
  2957  038F  0852               	movf	___fladd@bexp,w
  2958  0390  1903               	btfsc	3,2
  2959  0391  2B93               	goto	u1331
  2960  0392  2B94               	goto	u1330
  2961  0393                     u1331:
  2962  0393  2BA4               	goto	l1284
  2963  0394                     u1330:
  2964  0394                     l1276:
  2965  0394  0A52               	incf	___fladd@bexp,w
  2966  0395  1D03               	btfss	3,2
  2967  0396  2B98               	goto	u1341
  2968  0397  2B99               	goto	u1340
  2969  0398                     u1341:
  2970  0398  2BA1               	goto	l1280
  2971  0399                     u1340:
  2972  0399                     l1278:
  2973  0399  3000               	movlw	0
  2974  039A  00C3               	movwf	___fladd@b+3
  2975  039B  3000               	movlw	0
  2976  039C  00C2               	movwf	___fladd@b+2
  2977  039D  3000               	movlw	0
  2978  039E  00C1               	movwf	___fladd@b+1
  2979  039F  3000               	movlw	0
  2980  03A0  00C0               	movwf	___fladd@b
  2981  03A1                     l1280:
  2982  03A1  17C2               	bsf	___fladd@b+2,7
  2983  03A2                     l1282:
  2984  03A2  01C3               	clrf	___fladd@b+3
  2985  03A3  2BAC               	goto	l1286
  2986  03A4                     l1284:
  2987  03A4  3000               	movlw	0
  2988  03A5  00C3               	movwf	___fladd@b+3
  2989  03A6  3000               	movlw	0
  2990  03A7  00C2               	movwf	___fladd@b+2
  2991  03A8  3000               	movlw	0
  2992  03A9  00C1               	movwf	___fladd@b+1
  2993  03AA  3000               	movlw	0
  2994  03AB  00C0               	movwf	___fladd@b
  2995  03AC                     l1286:
  2996  03AC  0847               	movf	___fladd@a+3,w
  2997  03AD  3980               	andlw	128
  2998  03AE  00C8               	movwf	??___fladd
  2999  03AF  0848               	movf	??___fladd,w
  3000  03B0  00D1               	movwf	___fladd@aexp
  3001  03B1                     l1288:
  3002  03B1  0851               	movf	___fladd@aexp,w
  3003  03B2  0650               	xorwf	___fladd@signs,w
  3004  03B3  1903               	skipnz
  3005  03B4  2BB6               	goto	u1351
  3006  03B5  2BB7               	goto	u1350
  3007  03B6                     u1351:
  3008  03B6  2BB8               	goto	l1292
  3009  03B7                     u1350:
  3010  03B7                     l1290:
  3011  03B7  1750               	bsf	___fladd@signs,6
  3012  03B8                     l1292:
  3013  03B8  0847               	movf	___fladd@a+3,w
  3014  03B9  00C8               	movwf	??___fladd
  3015  03BA  0748               	addwf	??___fladd,w
  3016  03BB  00C9               	movwf	??___fladd+1
  3017  03BC  0849               	movf	??___fladd+1,w
  3018  03BD  00D1               	movwf	___fladd@aexp
  3019  03BE                     l1294:
  3020  03BE  1FC6               	btfss	___fladd@a+2,7
  3021  03BF  2BC1               	goto	u1361
  3022  03C0  2BC2               	goto	u1360
  3023  03C1                     u1361:
  3024  03C1  2BC3               	goto	l1298
  3025  03C2                     u1360:
  3026  03C2                     l1296:
  3027  03C2  1451               	bsf	___fladd@aexp,0
  3028  03C3                     l1298:
  3029  03C3  0851               	movf	___fladd@aexp,w
  3030  03C4  1903               	btfsc	3,2
  3031  03C5  2BC7               	goto	u1371
  3032  03C6  2BC8               	goto	u1370
  3033  03C7                     u1371:
  3034  03C7  2BD8               	goto	l1308
  3035  03C8                     u1370:
  3036  03C8                     l1300:
  3037  03C8  0A51               	incf	___fladd@aexp,w
  3038  03C9  1D03               	btfss	3,2
  3039  03CA  2BCC               	goto	u1381
  3040  03CB  2BCD               	goto	u1380
  3041  03CC                     u1381:
  3042  03CC  2BD5               	goto	l1304
  3043  03CD                     u1380:
  3044  03CD                     l1302:
  3045  03CD  3000               	movlw	0
  3046  03CE  00C7               	movwf	___fladd@a+3
  3047  03CF  3000               	movlw	0
  3048  03D0  00C6               	movwf	___fladd@a+2
  3049  03D1  3000               	movlw	0
  3050  03D2  00C5               	movwf	___fladd@a+1
  3051  03D3  3000               	movlw	0
  3052  03D4  00C4               	movwf	___fladd@a
  3053  03D5                     l1304:
  3054  03D5  17C6               	bsf	___fladd@a+2,7
  3055  03D6                     l1306:
  3056  03D6  01C7               	clrf	___fladd@a+3
  3057  03D7  2BE0               	goto	l485
  3058  03D8                     l1308:
  3059  03D8  3000               	movlw	0
  3060  03D9  00C7               	movwf	___fladd@a+3
  3061  03DA  3000               	movlw	0
  3062  03DB  00C6               	movwf	___fladd@a+2
  3063  03DC  3000               	movlw	0
  3064  03DD  00C5               	movwf	___fladd@a+1
  3065  03DE  3000               	movlw	0
  3066  03DF  00C4               	movwf	___fladd@a
  3067  03E0                     l485:
  3068  03E0  0852               	movf	___fladd@bexp,w
  3069  03E1  0251               	subwf	___fladd@aexp,w
  3070  03E2  1803               	skipnc
  3071  03E3  2BE5               	goto	u1391
  3072  03E4  2BE6               	goto	u1390
  3073  03E5                     u1391:
  3074  03E5  2C2A               	goto	l1344
  3075  03E6                     u1390:
  3076  03E6                     l1310:
  3077  03E6  1F50               	btfss	___fladd@signs,6
  3078  03E7  2BE9               	goto	u1401
  3079  03E8  2BEA               	goto	u1400
  3080  03E9                     u1401:
  3081  03E9  2BEE               	goto	l1314
  3082  03EA                     u1400:
  3083  03EA                     l1312:
  3084  03EA  3080               	movlw	128
  3085  03EB  00C8               	movwf	??___fladd
  3086  03EC  0848               	movf	??___fladd,w
  3087  03ED  06D0               	xorwf	___fladd@signs,f
  3088  03EE                     l1314:
  3089  03EE  0852               	movf	___fladd@bexp,w
  3090  03EF  00C8               	movwf	??___fladd
  3091  03F0  0848               	movf	??___fladd,w
  3092  03F1  00D3               	movwf	___fladd@grs
  3093  03F2                     l1316:
  3094  03F2  0851               	movf	___fladd@aexp,w
  3095  03F3  00C8               	movwf	??___fladd
  3096  03F4  0848               	movf	??___fladd,w
  3097  03F5  00D2               	movwf	___fladd@bexp
  3098  03F6                     l1318:
  3099  03F6  0853               	movf	___fladd@grs,w
  3100  03F7  00C8               	movwf	??___fladd
  3101  03F8  0848               	movf	??___fladd,w
  3102  03F9  00D1               	movwf	___fladd@aexp
  3103  03FA                     l1320:
  3104  03FA  0840               	movf	___fladd@b,w
  3105  03FB  00C8               	movwf	??___fladd
  3106  03FC  0848               	movf	??___fladd,w
  3107  03FD  00D3               	movwf	___fladd@grs
  3108  03FE                     l1322:
  3109  03FE  0844               	movf	___fladd@a,w
  3110  03FF  00C8               	movwf	??___fladd
  3111  0400  0848               	movf	??___fladd,w
  3112  0401  00C0               	movwf	___fladd@b
  3113  0402                     l1324:
  3114  0402  0853               	movf	___fladd@grs,w
  3115  0403  00C8               	movwf	??___fladd
  3116  0404  0848               	movf	??___fladd,w
  3117  0405  00C4               	movwf	___fladd@a
  3118  0406                     l1326:
  3119  0406  0841               	movf	___fladd@b+1,w
  3120  0407  00C8               	movwf	??___fladd
  3121  0408  0848               	movf	??___fladd,w
  3122  0409  00D3               	movwf	___fladd@grs
  3123  040A                     l1328:
  3124  040A  0845               	movf	___fladd@a+1,w
  3125  040B  00C8               	movwf	??___fladd
  3126  040C  0848               	movf	??___fladd,w
  3127  040D  00C1               	movwf	___fladd@b+1
  3128  040E                     l1330:
  3129  040E  0853               	movf	___fladd@grs,w
  3130  040F  00C8               	movwf	??___fladd
  3131  0410  0848               	movf	??___fladd,w
  3132  0411  00C5               	movwf	___fladd@a+1
  3133  0412                     l1332:
  3134  0412  0842               	movf	___fladd@b+2,w
  3135  0413  00C8               	movwf	??___fladd
  3136  0414  0848               	movf	??___fladd,w
  3137  0415  00D3               	movwf	___fladd@grs
  3138  0416                     l1334:
  3139  0416  0846               	movf	___fladd@a+2,w
  3140  0417  00C8               	movwf	??___fladd
  3141  0418  0848               	movf	??___fladd,w
  3142  0419  00C2               	movwf	___fladd@b+2
  3143  041A                     l1336:
  3144  041A  0853               	movf	___fladd@grs,w
  3145  041B  00C8               	movwf	??___fladd
  3146  041C  0848               	movf	??___fladd,w
  3147  041D  00C6               	movwf	___fladd@a+2
  3148  041E                     l1338:
  3149  041E  0843               	movf	___fladd@b+3,w
  3150  041F  00C8               	movwf	??___fladd
  3151  0420  0848               	movf	??___fladd,w
  3152  0421  00D3               	movwf	___fladd@grs
  3153  0422                     l1340:
  3154  0422  0847               	movf	___fladd@a+3,w
  3155  0423  00C8               	movwf	??___fladd
  3156  0424  0848               	movf	??___fladd,w
  3157  0425  00C3               	movwf	___fladd@b+3
  3158  0426                     l1342:
  3159  0426  0853               	movf	___fladd@grs,w
  3160  0427  00C8               	movwf	??___fladd
  3161  0428  0848               	movf	??___fladd,w
  3162  0429  00C7               	movwf	___fladd@a+3
  3163  042A                     l1344:
  3164  042A  01D3               	clrf	___fladd@grs
  3165  042B                     l1346:
  3166  042B  0851               	movf	___fladd@aexp,w
  3167  042C  00C8               	movwf	??___fladd
  3168  042D  01C9               	clrf	??___fladd+1
  3169  042E  0849               	movf	??___fladd+1,w
  3170  042F  00CB               	movwf	??___fladd+3
  3171  0430  0852               	movf	___fladd@bexp,w
  3172  0431  0248               	subwf	??___fladd,w
  3173  0432  00CA               	movwf	??___fladd+2
  3174  0433  1C03               	skipc
  3175  0434  03CB               	decf	??___fladd+3,f
  3176  0435  084B               	movf	??___fladd+3,w
  3177  0436  3A80               	xorlw	128
  3178  0437  00FF               	movwf	btemp+1
  3179  0438  3080               	movlw	128
  3180  0439  027F               	subwf	btemp+1,w
  3181  043A  1D03               	skipz
  3182  043B  2C3E               	goto	u1415
  3183  043C  301A               	movlw	26
  3184  043D  024A               	subwf	??___fladd+2,w
  3185  043E                     u1415:
  3186  043E  1C03               	skipc
  3187  043F  2C41               	goto	u1411
  3188  0440  2C42               	goto	u1410
  3189  0441                     u1411:
  3190  0441  2C7F               	goto	l1362
  3191  0442                     u1410:
  3192  0442                     l1348:
  3193  0442  1283               	bcf	3,5	;RP0=0, select bank0
  3194  0443  1303               	bcf	3,6	;RP1=0, select bank0
  3195  0444  0843               	movf	___fladd@b+3,w
  3196  0445  0442               	iorwf	___fladd@b+2,w
  3197  0446  0441               	iorwf	___fladd@b+1,w
  3198  0447  0440               	iorwf	___fladd@b,w
  3199  0448  1D03               	skipz
  3200  0449  2C4B               	goto	u1421
  3201  044A  2C4D               	goto	u1420
  3202  044B                     u1421:
  3203  044B  3001               	movlw	1
  3204  044C  2C4E               	goto	u1430
  3205  044D                     u1420:
  3206  044D  3000               	movlw	0
  3207  044E                     u1430:
  3208  044E  00C8               	movwf	??___fladd
  3209  044F  0848               	movf	??___fladd,w
  3210  0450  00D3               	movwf	___fladd@grs
  3211  0451  3000               	movlw	0
  3212  0452  00C3               	movwf	___fladd@b+3
  3213  0453  3000               	movlw	0
  3214  0454  00C2               	movwf	___fladd@b+2
  3215  0455  3000               	movlw	0
  3216  0456  00C1               	movwf	___fladd@b+1
  3217  0457  3000               	movlw	0
  3218  0458  00C0               	movwf	___fladd@b
  3219  0459  0851               	movf	___fladd@aexp,w
  3220  045A  00C8               	movwf	??___fladd
  3221  045B  0848               	movf	??___fladd,w
  3222  045C  00D2               	movwf	___fladd@bexp
  3223  045D  2C87               	goto	l489
  3224  045E                     l491:
  3225  045E  1C53               	btfss	___fladd@grs,0
  3226  045F  2C61               	goto	u1441
  3227  0460  2C62               	goto	u1440
  3228  0461                     u1441:
  3229  0461  2C6B               	goto	l1352
  3230  0462                     u1440:
  3231  0462                     l1350:
  3232  0462  0853               	movf	___fladd@grs,w
  3233  0463  00C8               	movwf	??___fladd
  3234  0464  1003               	clrc
  3235  0465  0C48               	rrf	??___fladd,w
  3236  0466  3801               	iorlw	1
  3237  0467  00C9               	movwf	??___fladd+1
  3238  0468  0849               	movf	??___fladd+1,w
  3239  0469  00D3               	movwf	___fladd@grs
  3240  046A  2C6D               	goto	l1354
  3241  046B                     l1352:
  3242  046B  1003               	clrc
  3243  046C  0CD3               	rrf	___fladd@grs,f
  3244  046D                     l1354:
  3245  046D  1C40               	btfss	___fladd@b,0
  3246  046E  2C70               	goto	u1451
  3247  046F  2C71               	goto	u1450
  3248  0470                     u1451:
  3249  0470  2C72               	goto	l1358
  3250  0471                     u1450:
  3251  0471                     l1356:
  3252  0471  17D3               	bsf	___fladd@grs,7
  3253  0472                     l1358:
  3254  0472  3001               	movlw	1
  3255  0473  00C8               	movwf	??___fladd
  3256  0474                     u1465:
  3257  0474  0D43               	rlf	___fladd@b+3,w
  3258  0475  0CC3               	rrf	___fladd@b+3,f
  3259  0476  0CC2               	rrf	___fladd@b+2,f
  3260  0477  0CC1               	rrf	___fladd@b+1,f
  3261  0478  0CC0               	rrf	___fladd@b,f
  3262  0479  0BC8               	decfsz	??___fladd& (0+127),f
  3263  047A  2C74               	goto	u1465
  3264  047B                     l1360:
  3265  047B  3001               	movlw	1
  3266  047C  00C8               	movwf	??___fladd
  3267  047D  0848               	movf	??___fladd,w
  3268  047E  07D2               	addwf	___fladd@bexp,f
  3269  047F                     l1362:
  3270  047F  1283               	bcf	3,5	;RP0=0, select bank0
  3271  0480  1303               	bcf	3,6	;RP1=0, select bank0
  3272  0481  0851               	movf	___fladd@aexp,w
  3273  0482  0252               	subwf	___fladd@bexp,w
  3274  0483  1C03               	skipc
  3275  0484  2C86               	goto	u1471
  3276  0485  2C87               	goto	u1470
  3277  0486                     u1471:
  3278  0486  2C5E               	goto	l491
  3279  0487                     u1470:
  3280  0487                     l489:
  3281  0487  1B50               	btfsc	___fladd@signs,6
  3282  0488  2C8A               	goto	u1481
  3283  0489  2C8B               	goto	u1480
  3284  048A                     u1481:
  3285  048A  2CD6               	goto	l1388
  3286  048B                     u1480:
  3287  048B                     l1364:
  3288  048B  0852               	movf	___fladd@bexp,w
  3289  048C  1D03               	btfss	3,2
  3290  048D  2C8F               	goto	u1491
  3291  048E  2C90               	goto	u1490
  3292  048F                     u1491:
  3293  048F  2C99               	goto	l1370
  3294  0490                     u1490:
  3295  0490                     l1366:
  3296  0490  3000               	movlw	0
  3297  0491  00C3               	movwf	?___fladd+3
  3298  0492  3000               	movlw	0
  3299  0493  00C2               	movwf	?___fladd+2
  3300  0494  3000               	movlw	0
  3301  0495  00C1               	movwf	?___fladd+1
  3302  0496  3000               	movlw	0
  3303  0497  00C0               	movwf	?___fladd
  3304  0498  2E04               	goto	l498
  3305  0499                     l1370:
  3306  0499  0844               	movf	___fladd@a,w
  3307  049A  07C0               	addwf	___fladd@b,f
  3308  049B  0845               	movf	___fladd@a+1,w
  3309  049C  1103               	clrz
  3310  049D  1803               	skipnc
  3311  049E  3E01               	addlw	1
  3312  049F  1903               	skipnz
  3313  04A0  2CA2               	goto	u1501
  3314  04A1  07C1               	addwf	___fladd@b+1,f
  3315  04A2                     u1501:
  3316  04A2  0846               	movf	___fladd@a+2,w
  3317  04A3  1103               	clrz
  3318  04A4  1803               	skipnc
  3319  04A5  3E01               	addlw	1
  3320  04A6  1903               	skipnz
  3321  04A7  2CA9               	goto	u1502
  3322  04A8  07C2               	addwf	___fladd@b+2,f
  3323  04A9                     u1502:
  3324  04A9  0847               	movf	___fladd@a+3,w
  3325  04AA  1103               	clrz
  3326  04AB  1803               	skipnc
  3327  04AC  3E01               	addlw	1
  3328  04AD  1903               	skipnz
  3329  04AE  2CB0               	goto	u1503
  3330  04AF  07C3               	addwf	___fladd@b+3,f
  3331  04B0                     u1503:
  3332  04B0                     l1372:
  3333  04B0  1C43               	btfss	___fladd@b+3,0
  3334  04B1  2CB3               	goto	u1511
  3335  04B2  2CB4               	goto	u1510
  3336  04B3                     u1511:
  3337  04B3  2D8A               	goto	l1422
  3338  04B4                     u1510:
  3339  04B4                     l1374:
  3340  04B4  1C53               	btfss	___fladd@grs,0
  3341  04B5  2CB7               	goto	u1521
  3342  04B6  2CB8               	goto	u1520
  3343  04B7                     u1521:
  3344  04B7  2CC1               	goto	l1378
  3345  04B8                     u1520:
  3346  04B8                     l1376:
  3347  04B8  0853               	movf	___fladd@grs,w
  3348  04B9  00C8               	movwf	??___fladd
  3349  04BA  1003               	clrc
  3350  04BB  0C48               	rrf	??___fladd,w
  3351  04BC  3801               	iorlw	1
  3352  04BD  00C9               	movwf	??___fladd+1
  3353  04BE  0849               	movf	??___fladd+1,w
  3354  04BF  00D3               	movwf	___fladd@grs
  3355  04C0  2CC3               	goto	l1380
  3356  04C1                     l1378:
  3357  04C1  1003               	clrc
  3358  04C2  0CD3               	rrf	___fladd@grs,f
  3359  04C3                     l1380:
  3360  04C3  1C40               	btfss	___fladd@b,0
  3361  04C4  2CC6               	goto	u1531
  3362  04C5  2CC7               	goto	u1530
  3363  04C6                     u1531:
  3364  04C6  2CC8               	goto	l1384
  3365  04C7                     u1530:
  3366  04C7                     l1382:
  3367  04C7  17D3               	bsf	___fladd@grs,7
  3368  04C8                     l1384:
  3369  04C8  3001               	movlw	1
  3370  04C9  00C8               	movwf	??___fladd
  3371  04CA                     u1545:
  3372  04CA  0D43               	rlf	___fladd@b+3,w
  3373  04CB  0CC3               	rrf	___fladd@b+3,f
  3374  04CC  0CC2               	rrf	___fladd@b+2,f
  3375  04CD  0CC1               	rrf	___fladd@b+1,f
  3376  04CE  0CC0               	rrf	___fladd@b,f
  3377  04CF  0BC8               	decfsz	??___fladd& (0+127),f
  3378  04D0  2CCA               	goto	u1545
  3379  04D1                     l1386:
  3380  04D1  3001               	movlw	1
  3381  04D2  00C8               	movwf	??___fladd
  3382  04D3  0848               	movf	??___fladd,w
  3383  04D4  07D2               	addwf	___fladd@bexp,f
  3384  04D5  2D8A               	goto	l1422
  3385  04D6                     l1388:
  3386  04D6  0843               	movf	___fladd@b+3,w
  3387  04D7  3A80               	xorlw	128
  3388  04D8  00FF               	movwf	btemp+1
  3389  04D9  0847               	movf	___fladd@a+3,w
  3390  04DA  3A80               	xorlw	128
  3391  04DB  027F               	subwf	btemp+1,w
  3392  04DC  1D03               	skipz
  3393  04DD  2CE8               	goto	u1553
  3394  04DE  0846               	movf	___fladd@a+2,w
  3395  04DF  0242               	subwf	___fladd@b+2,w
  3396  04E0  1D03               	skipz
  3397  04E1  2CE8               	goto	u1553
  3398  04E2  0845               	movf	___fladd@a+1,w
  3399  04E3  0241               	subwf	___fladd@b+1,w
  3400  04E4  1D03               	skipz
  3401  04E5  2CE8               	goto	u1553
  3402  04E6  0844               	movf	___fladd@a,w
  3403  04E7  0240               	subwf	___fladd@b,w
  3404  04E8                     u1553:
  3405  04E8  1803               	skipnc
  3406  04E9  2CEB               	goto	u1551
  3407  04EA  2CEC               	goto	u1550
  3408  04EB                     u1551:
  3409  04EB  2D44               	goto	l1398
  3410  04EC                     u1550:
  3411  04EC                     l1390:
  3412  04EC  30FF               	movlw	255
  3413  04ED  00C8               	movwf	??___fladd
  3414  04EE  30FF               	movlw	255
  3415  04EF  00C9               	movwf	??___fladd+1
  3416  04F0  30FF               	movlw	255
  3417  04F1  00CA               	movwf	??___fladd+2
  3418  04F2  30FF               	movlw	255
  3419  04F3  00CB               	movwf	??___fladd+3
  3420  04F4  0844               	movf	___fladd@a,w
  3421  04F5  00CC               	movwf	??___fladd+4
  3422  04F6  0845               	movf	___fladd@a+1,w
  3423  04F7  00CD               	movwf	??___fladd+5
  3424  04F8  0846               	movf	___fladd@a+2,w
  3425  04F9  00CE               	movwf	??___fladd+6
  3426  04FA  0847               	movf	___fladd@a+3,w
  3427  04FB  00CF               	movwf	??___fladd+7
  3428  04FC  0840               	movf	___fladd@b,w
  3429  04FD  02CC               	subwf	??___fladd+4,f
  3430  04FE  0841               	movf	___fladd@b+1,w
  3431  04FF  1C03               	skipc
  3432  0500  0F41               	incfsz	___fladd@b+1,w
  3433  0501  2D03               	goto	u1561
  3434  0502  2D04               	goto	u1562
  3435  0503                     u1561:
  3436  0503  02CD               	subwf	??___fladd+5,f
  3437  0504                     u1562:
  3438  0504  0842               	movf	___fladd@b+2,w
  3439  0505  1C03               	skipc
  3440  0506  0F42               	incfsz	___fladd@b+2,w
  3441  0507  2D09               	goto	u1563
  3442  0508  2D0A               	goto	u1564
  3443  0509                     u1563:
  3444  0509  02CE               	subwf	??___fladd+6,f
  3445  050A                     u1564:
  3446  050A  0843               	movf	___fladd@b+3,w
  3447  050B  1C03               	skipc
  3448  050C  0F43               	incfsz	___fladd@b+3,w
  3449  050D  2D0F               	goto	u1565
  3450  050E  2D10               	goto	u1566
  3451  050F                     u1565:
  3452  050F  02CF               	subwf	??___fladd+7,f
  3453  0510                     u1566:
  3454  0510  084C               	movf	??___fladd+4,w
  3455  0511  07C8               	addwf	??___fladd,f
  3456  0512  084D               	movf	??___fladd+5,w
  3457  0513  1803               	skipnc
  3458  0514  0F4D               	incfsz	??___fladd+5,w
  3459  0515  2D17               	goto	u1570
  3460  0516  2D18               	goto	u1571
  3461  0517                     u1570:
  3462  0517  07C9               	addwf	??___fladd+1,f
  3463  0518                     u1571:
  3464  0518  084E               	movf	??___fladd+6,w
  3465  0519  1803               	skipnc
  3466  051A  0F4E               	incfsz	??___fladd+6,w
  3467  051B  2D1D               	goto	u1572
  3468  051C  2D1E               	goto	u1573
  3469  051D                     u1572:
  3470  051D  07CA               	addwf	??___fladd+2,f
  3471  051E                     u1573:
  3472  051E  084F               	movf	??___fladd+7,w
  3473  051F  1803               	skipnc
  3474  0520  0A4F               	incf	??___fladd+7,w
  3475  0521  07CB               	addwf	??___fladd+3,f
  3476  0522  084B               	movf	??___fladd+3,w
  3477  0523  00C3               	movwf	___fladd@b+3
  3478  0524  084A               	movf	??___fladd+2,w
  3479  0525  00C2               	movwf	___fladd@b+2
  3480  0526  0849               	movf	??___fladd+1,w
  3481  0527  00C1               	movwf	___fladd@b+1
  3482  0528  0848               	movf	??___fladd,w
  3483  0529  00C0               	movwf	___fladd@b
  3484  052A                     l1392:
  3485  052A  3080               	movlw	128
  3486  052B  00C8               	movwf	??___fladd
  3487  052C  0848               	movf	??___fladd,w
  3488  052D  06D0               	xorwf	___fladd@signs,f
  3489  052E  09D3               	comf	___fladd@grs,f
  3490  052F  0AD3               	incf	___fladd@grs,f
  3491  0530                     l1394:
  3492  0530  0853               	movf	___fladd@grs,w
  3493  0531  1D03               	btfss	3,2
  3494  0532  2D34               	goto	u1581
  3495  0533  2D35               	goto	u1580
  3496  0534                     u1581:
  3497  0534  2D52               	goto	l506
  3498  0535                     u1580:
  3499  0535                     l1396:
  3500  0535  3001               	movlw	1
  3501  0536  07C0               	addwf	___fladd@b,f
  3502  0537  3000               	movlw	0
  3503  0538  1803               	skipnc
  3504  0539  3001               	movlw	1
  3505  053A  07C1               	addwf	___fladd@b+1,f
  3506  053B  3000               	movlw	0
  3507  053C  1803               	skipnc
  3508  053D  3001               	movlw	1
  3509  053E  07C2               	addwf	___fladd@b+2,f
  3510  053F  3000               	movlw	0
  3511  0540  1803               	skipnc
  3512  0541  3001               	movlw	1
  3513  0542  07C3               	addwf	___fladd@b+3,f
  3514  0543  2D52               	goto	l506
  3515  0544                     l1398:
  3516  0544  0844               	movf	___fladd@a,w
  3517  0545  02C0               	subwf	___fladd@b,f
  3518  0546  0845               	movf	___fladd@a+1,w
  3519  0547  1C03               	skipc
  3520  0548  0F45               	incfsz	___fladd@a+1,w
  3521  0549  02C1               	subwf	___fladd@b+1,f
  3522  054A  0846               	movf	___fladd@a+2,w
  3523  054B  1C03               	skipc
  3524  054C  0F46               	incfsz	___fladd@a+2,w
  3525  054D  02C2               	subwf	___fladd@b+2,f
  3526  054E  0847               	movf	___fladd@a+3,w
  3527  054F  1C03               	skipc
  3528  0550  0F47               	incfsz	___fladd@a+3,w
  3529  0551  02C3               	subwf	___fladd@b+3,f
  3530  0552                     l506:
  3531  0552  0843               	movf	___fladd@b+3,w
  3532  0553  0442               	iorwf	___fladd@b+2,w
  3533  0554  0441               	iorwf	___fladd@b+1,w
  3534  0555  0440               	iorwf	___fladd@b,w
  3535  0556  1D03               	skipz
  3536  0557  2D59               	goto	u1591
  3537  0558  2D5A               	goto	u1590
  3538  0559                     u1591:
  3539  0559  2D86               	goto	l1420
  3540  055A                     u1590:
  3541  055A                     l1400:
  3542  055A  0853               	movf	___fladd@grs,w
  3543  055B  1D03               	btfss	3,2
  3544  055C  2D5E               	goto	u1601
  3545  055D  2D5F               	goto	u1600
  3546  055E                     u1601:
  3547  055E  2D86               	goto	l1420
  3548  055F                     u1600:
  3549  055F                     l1402:
  3550  055F  3000               	movlw	0
  3551  0560  00C3               	movwf	?___fladd+3
  3552  0561  3000               	movlw	0
  3553  0562  00C2               	movwf	?___fladd+2
  3554  0563  3000               	movlw	0
  3555  0564  00C1               	movwf	?___fladd+1
  3556  0565  3000               	movlw	0
  3557  0566  00C0               	movwf	?___fladd
  3558  0567  2E04               	goto	l498
  3559  0568                     l1406:
  3560  0568  3001               	movlw	1
  3561  0569  00C8               	movwf	??___fladd
  3562  056A                     u1615:
  3563  056A  1003               	clrc
  3564  056B  0DC0               	rlf	___fladd@b,f
  3565  056C  0DC1               	rlf	___fladd@b+1,f
  3566  056D  0DC2               	rlf	___fladd@b+2,f
  3567  056E  0DC3               	rlf	___fladd@b+3,f
  3568  056F  0BC8               	decfsz	??___fladd,f
  3569  0570  2D6A               	goto	u1615
  3570  0571                     l1408:
  3571  0571  1FD3               	btfss	___fladd@grs,7
  3572  0572  2D74               	goto	u1621
  3573  0573  2D75               	goto	u1620
  3574  0574                     u1621:
  3575  0574  2D76               	goto	l510
  3576  0575                     u1620:
  3577  0575                     l1410:
  3578  0575  1440               	bsf	___fladd@b,0
  3579  0576                     l510:
  3580  0576  1C53               	btfss	___fladd@grs,0
  3581  0577  2D79               	goto	u1631
  3582  0578  2D7A               	goto	u1630
  3583  0579                     u1631:
  3584  0579  2D7D               	goto	l1414
  3585  057A                     u1630:
  3586  057A                     l1412:
  3587  057A  1403               	setc
  3588  057B  0DD3               	rlf	___fladd@grs,f
  3589  057C  2D7F               	goto	l1416
  3590  057D                     l1414:
  3591  057D  1003               	clrc
  3592  057E  0DD3               	rlf	___fladd@grs,f
  3593  057F                     l1416:
  3594  057F  0852               	movf	___fladd@bexp,w
  3595  0580  1903               	btfsc	3,2
  3596  0581  2D83               	goto	u1641
  3597  0582  2D84               	goto	u1640
  3598  0583                     u1641:
  3599  0583  2D86               	goto	l1420
  3600  0584                     u1640:
  3601  0584                     l1418:
  3602  0584  3001               	movlw	1
  3603  0585  02D2               	subwf	___fladd@bexp,f
  3604  0586                     l1420:
  3605  0586  1FC2               	btfss	___fladd@b+2,7
  3606  0587  2D89               	goto	u1651
  3607  0588  2D8A               	goto	u1650
  3608  0589                     u1651:
  3609  0589  2D68               	goto	l1406
  3610  058A                     u1650:
  3611  058A                     l1422:
  3612  058A  01D1               	clrf	___fladd@aexp
  3613  058B                     l1424:
  3614  058B  1FD3               	btfss	___fladd@grs,7
  3615  058C  2D8E               	goto	u1661
  3616  058D  2D8F               	goto	u1660
  3617  058E                     u1661:
  3618  058E  2D9D               	goto	l1432
  3619  058F                     u1660:
  3620  058F                     l1426:
  3621  058F  0853               	movf	___fladd@grs,w
  3622  0590  397F               	andlw	127
  3623  0591  1903               	btfsc	3,2
  3624  0592  2D94               	goto	u1671
  3625  0593  2D95               	goto	u1670
  3626  0594                     u1671:
  3627  0594  2D98               	goto	l516
  3628  0595                     u1670:
  3629  0595                     l1428:
  3630  0595  01D1               	clrf	___fladd@aexp
  3631  0596  0AD1               	incf	___fladd@aexp,f
  3632  0597  2D9D               	goto	l1432
  3633  0598                     l516:
  3634  0598  1C40               	btfss	___fladd@b,0
  3635  0599  2D9B               	goto	u1681
  3636  059A  2D9C               	goto	u1680
  3637  059B                     u1681:
  3638  059B  2D9D               	goto	l1432
  3639  059C                     u1680:
  3640  059C  2D95               	goto	l1428
  3641  059D                     l1432:
  3642  059D  0851               	movf	___fladd@aexp,w
  3643  059E  1903               	btfsc	3,2
  3644  059F  2DA1               	goto	u1691
  3645  05A0  2DA2               	goto	u1690
  3646  05A1                     u1691:
  3647  05A1  2DD6               	goto	l519
  3648  05A2                     u1690:
  3649  05A2                     l1434:
  3650  05A2  3001               	movlw	1
  3651  05A3  07C0               	addwf	___fladd@b,f
  3652  05A4  3000               	movlw	0
  3653  05A5  1803               	skipnc
  3654  05A6  3001               	movlw	1
  3655  05A7  07C1               	addwf	___fladd@b+1,f
  3656  05A8  3000               	movlw	0
  3657  05A9  1803               	skipnc
  3658  05AA  3001               	movlw	1
  3659  05AB  07C2               	addwf	___fladd@b+2,f
  3660  05AC  3000               	movlw	0
  3661  05AD  1803               	skipnc
  3662  05AE  3001               	movlw	1
  3663  05AF  07C3               	addwf	___fladd@b+3,f
  3664  05B0                     l1436:
  3665  05B0  1C43               	btfss	___fladd@b+3,0
  3666  05B1  2DB3               	goto	u1701
  3667  05B2  2DB4               	goto	u1700
  3668  05B3                     u1701:
  3669  05B3  2DD6               	goto	l519
  3670  05B4                     u1700:
  3671  05B4                     l1438:
  3672  05B4  0840               	movf	___fladd@b,w
  3673  05B5  00C8               	movwf	??___fladd
  3674  05B6  0841               	movf	___fladd@b+1,w
  3675  05B7  00C9               	movwf	??___fladd+1
  3676  05B8  0842               	movf	___fladd@b+2,w
  3677  05B9  00CA               	movwf	??___fladd+2
  3678  05BA  0843               	movf	___fladd@b+3,w
  3679  05BB  00CB               	movwf	??___fladd+3
  3680  05BC  3001               	movlw	1
  3681  05BD  00CC               	movwf	??___fladd+4
  3682  05BE                     u1715:
  3683  05BE  0D4B               	rlf	??___fladd+3,w
  3684  05BF  0CCB               	rrf	??___fladd+3,f
  3685  05C0  0CCA               	rrf	??___fladd+2,f
  3686  05C1  0CC9               	rrf	??___fladd+1,f
  3687  05C2  0CC8               	rrf	??___fladd,f
  3688  05C3                     u1710:
  3689  05C3  0BCC               	decfsz	??___fladd+4,f
  3690  05C4  2DBE               	goto	u1715
  3691  05C5  084B               	movf	??___fladd+3,w
  3692  05C6  00C3               	movwf	___fladd@b+3
  3693  05C7  084A               	movf	??___fladd+2,w
  3694  05C8  00C2               	movwf	___fladd@b+2
  3695  05C9  0849               	movf	??___fladd+1,w
  3696  05CA  00C1               	movwf	___fladd@b+1
  3697  05CB  0848               	movf	??___fladd,w
  3698  05CC  00C0               	movwf	___fladd@b
  3699  05CD  0A52               	incf	___fladd@bexp,w
  3700  05CE  1903               	btfsc	3,2
  3701  05CF  2DD1               	goto	u1721
  3702  05D0  2DD2               	goto	u1720
  3703  05D1                     u1721:
  3704  05D1  2DD6               	goto	l519
  3705  05D2                     u1720:
  3706  05D2                     l1440:
  3707  05D2  3001               	movlw	1
  3708  05D3  00C8               	movwf	??___fladd
  3709  05D4  0848               	movf	??___fladd,w
  3710  05D5  07D2               	addwf	___fladd@bexp,f
  3711  05D6                     l519:
  3712  05D6  0A52               	incf	___fladd@bexp,w
  3713  05D7  1903               	btfsc	3,2
  3714  05D8  2DDA               	goto	u1731
  3715  05D9  2DDB               	goto	u1730
  3716  05DA                     u1731:
  3717  05DA  2DE0               	goto	l1444
  3718  05DB                     u1730:
  3719  05DB                     l1442:
  3720  05DB  0852               	movf	___fladd@bexp,w
  3721  05DC  1D03               	btfss	3,2
  3722  05DD  2DDF               	goto	u1741
  3723  05DE  2DE0               	goto	u1740
  3724  05DF                     u1741:
  3725  05DF  2DEE               	goto	l1450
  3726  05E0                     u1740:
  3727  05E0                     l1444:
  3728  05E0  3000               	movlw	0
  3729  05E1  00C3               	movwf	___fladd@b+3
  3730  05E2  3000               	movlw	0
  3731  05E3  00C2               	movwf	___fladd@b+2
  3732  05E4  3000               	movlw	0
  3733  05E5  00C1               	movwf	___fladd@b+1
  3734  05E6  3000               	movlw	0
  3735  05E7  00C0               	movwf	___fladd@b
  3736  05E8                     l1446:
  3737  05E8  0852               	movf	___fladd@bexp,w
  3738  05E9  1D03               	btfss	3,2
  3739  05EA  2DEC               	goto	u1751
  3740  05EB  2DED               	goto	u1750
  3741  05EC                     u1751:
  3742  05EC  2DEE               	goto	l1450
  3743  05ED                     u1750:
  3744  05ED                     l1448:
  3745  05ED  01D0               	clrf	___fladd@signs
  3746  05EE                     l1450:
  3747  05EE  1C52               	btfss	___fladd@bexp,0
  3748  05EF  2DF1               	goto	u1761
  3749  05F0  2DF2               	goto	u1760
  3750  05F1                     u1761:
  3751  05F1  2DF4               	goto	l1454
  3752  05F2                     u1760:
  3753  05F2                     l1452:
  3754  05F2  17C2               	bsf	___fladd@b+2,7
  3755  05F3  2DF8               	goto	l527
  3756  05F4                     l1454:
  3757  05F4  307F               	movlw	127
  3758  05F5  00C8               	movwf	??___fladd
  3759  05F6  0848               	movf	??___fladd,w
  3760  05F7  05C2               	andwf	___fladd@b+2,f
  3761  05F8                     l527:
  3762  05F8  0852               	movf	___fladd@bexp,w
  3763  05F9  00C8               	movwf	??___fladd
  3764  05FA  1003               	clrc
  3765  05FB  0C48               	rrf	??___fladd,w
  3766  05FC  00C9               	movwf	??___fladd+1
  3767  05FD  0849               	movf	??___fladd+1,w
  3768  05FE  00C3               	movwf	___fladd@b+3
  3769  05FF                     l1456:
  3770  05FF  1FD0               	btfss	___fladd@signs,7
  3771  0600  2E02               	goto	u1771
  3772  0601  2E03               	goto	u1770
  3773  0602                     u1771:
  3774  0602  2E04               	goto	l528
  3775  0603                     u1770:
  3776  0603                     l1458:
  3777  0603  17C3               	bsf	___fladd@b+3,7
  3778  0604                     l528:
  3779  0604                     l498:
  3780  0604  0008               	return
  3781  0605                     __end_of___fladd:
  3782                           
  3783                           	psect	text11
  3784  0F4C                     __ptext11:	
  3785 ;; *************** function _isr *****************
  3786 ;; Defined at:
  3787 ;;		line 41 in file "main.c"
  3788 ;; Parameters:    Size  Location     Type
  3789 ;;		None
  3790 ;; Auto vars:     Size  Location     Type
  3791 ;;		None
  3792 ;; Return value:  Size  Location     Type
  3793 ;;                  1    wreg      void 
  3794 ;; Registers used:
  3795 ;;		None
  3796 ;; Tracked objects:
  3797 ;;		On entry : 0/0
  3798 ;;		On exit  : 0/0
  3799 ;;		Unchanged: 0/0
  3800 ;; Data sizes:     COMMON   BANK0   BANK1   BANK3   BANK2
  3801 ;;      Params:         0       0       0       0       0
  3802 ;;      Locals:         0       0       0       0       0
  3803 ;;      Temps:          2       0       0       0       0
  3804 ;;      Totals:         2       0       0       0       0
  3805 ;;Total ram usage:        2 bytes
  3806 ;; Hardware stack levels used: 1
  3807 ;; This function calls:
  3808 ;;		Nothing
  3809 ;; This function is called by:
  3810 ;;		Interrupt level 1
  3811 ;; This function uses a non-reentrant model
  3812 ;;
  3813                           
  3814  0F4C                     _isr:	
  3815                           ;psect for function _isr
  3816                           
  3817  0F4C                     i1l1176:
  3818                           
  3819                           ;main.c: 42:   if(PIR1bits.ADIF){
  3820  0F4C  1283               	bcf	3,5	;RP0=0, select bank0
  3821  0F4D  1303               	bcf	3,6	;RP1=0, select bank0
  3822  0F4E  1F0C               	btfss	12,6	;volatile
  3823  0F4F  2F51               	goto	u113_21
  3824  0F50  2F52               	goto	u113_20
  3825  0F51                     u113_21:
  3826  0F51  2F55               	goto	i1l64
  3827  0F52                     u113_20:
  3828  0F52                     i1l1178:
  3829                           
  3830                           ;main.c: 43:       PORTBbits.RB7=1;
  3831  0F52  1786               	bsf	6,7	;volatile
  3832                           
  3833                           ;main.c: 44:       PIR1bits.ADIF=0;
  3834  0F53  130C               	bcf	12,6	;volatile
  3835                           
  3836                           ;main.c: 45:       PIR1bits.TXIF=0;
  3837  0F54  120C               	bcf	12,4	;volatile
  3838  0F55                     i1l64:
  3839  0F55  0871               	movf	??_isr+1,w
  3840  0F56  008A               	movwf	10
  3841  0F57  0E70               	swapf	??_isr,w
  3842  0F58  0083               	movwf	3
  3843  0F59  0EFE               	swapf	btemp,f
  3844  0F5A  0E7E               	swapf	btemp,w
  3845  0F5B  0009               	retfie
  3846  0F5C                     __end_of_isr:
  3847  007E                     btemp	set	126	;btemp
  3848  007E                     wtemp0	set	126
  3849                           
  3850                           	psect	intentry
  3851  0004                     __pintentry:	
  3852                           ;incstack = 0
  3853                           ; Regs used in _isr: []
  3854                           
  3855  0004                     interrupt_function:
  3856  007E                     saved_w	set	btemp
  3857  0004  00FE               	movwf	btemp
  3858  0005  0E03               	swapf	3,w
  3859  0006  00F0               	movwf	??_isr
  3860  0007  080A               	movf	10,w
  3861  0008  00F1               	movwf	??_isr+1
  3862  0009  120A  158A  2F4C   	ljmp	_isr
  3863                           
  3864                           	psect	idloc
  3865                           
  3866                           ;Config register IDLOC0 @ 0x2000
  3867                           ;	unspecified, using default values
  3868  2000                     	org	8192
  3869  2000  3FFF               	dw	16383
  3870                           
  3871                           ;Config register IDLOC1 @ 0x2001
  3872                           ;	unspecified, using default values
  3873  2001                     	org	8193
  3874  2001  3FFF               	dw	16383
  3875                           
  3876                           ;Config register IDLOC2 @ 0x2002
  3877                           ;	unspecified, using default values
  3878  2002                     	org	8194
  3879  2002  3FFF               	dw	16383
  3880                           
  3881                           ;Config register IDLOC3 @ 0x2003
  3882                           ;	unspecified, using default values
  3883  2003                     	org	8195
  3884  2003  3FFF               	dw	16383
  3885                           
  3886                           	psect	config
  3887                           
  3888                           ;Config register CONFIG1 @ 0x2007
  3889                           ;	Oscillator Selection bits
  3890                           ;	FOSC = INTRC_CLKOUT, INTOSC oscillator: CLKOUT function on RA6/OSC2/CLKOUT pin, I/O fu
      +                          nction on RA7/OSC1/CLKIN
  3891                           ;	Watchdog Timer Enable bit
  3892                           ;	WDTE = OFF, WDT disabled and can be enabled by SWDTEN bit of the WDTCON register
  3893                           ;	Power-up Timer Enable bit
  3894                           ;	PWRTE = OFF, PWRT disabled
  3895                           ;	RE3/MCLR pin function select bit
  3896                           ;	MCLRE = OFF, RE3/MCLR pin function is digital input, MCLR internally tied to VDD
  3897                           ;	Code Protection bit
  3898                           ;	CP = OFF, Program memory code protection is disabled
  3899                           ;	Data Code Protection bit
  3900                           ;	CPD = OFF, Data memory code protection is disabled
  3901                           ;	Brown Out Reset Selection bits
  3902                           ;	BOREN = OFF, BOR disabled
  3903                           ;	Internal External Switchover bit
  3904                           ;	IESO = OFF, Internal/External Switchover mode is disabled
  3905                           ;	Fail-Safe Clock Monitor Enabled bit
  3906                           ;	FCMEN = OFF, Fail-Safe Clock Monitor is disabled
  3907                           ;	Low Voltage Programming Enable bit
  3908                           ;	LVP = OFF, RB3 pin has digital I/O, HV on MCLR must be used for programming
  3909                           ;	In-Circuit Debugger Mode bit
  3910                           ;	DEBUG = 0x1, unprogrammed default
  3911  2007                     	org	8199
  3912  2007  20D5               	dw	8405
  3913                           
  3914                           ;Config register CONFIG2 @ 0x2008
  3915                           ;	Brown-out Reset Selection bit
  3916                           ;	BOR4V = BOR40V, Brown-out Reset set to 4.0V
  3917                           ;	Flash Program Memory Self Write Enable bits
  3918                           ;	WRT = OFF, Write protection off
  3919  2008                     	org	8200
  3920  2008  3FFF               	dw	16383

Data Sizes:
    Strings     110
    Constant    0
    Data        0
    BSS         7
    Persistent  0
    Stack       0

Auto Spaces:
    Space          Size  Autos    Used
    COMMON           14     10      12
    BANK0            80     67      72
    BANK1            80      0       0
    BANK3            96      0       0
    BANK2            96      0       0

Pointer List with Targets:

    print@palabra	PTR unsigned char  size(1) Largest target is 27
		 -> STR_5(CODE[16]), STR_4(CODE[27]), STR_3(CODE[27]), STR_2(CODE[18]), 
		 -> STR_1(CODE[22]), 


Critical Paths under _main in COMMON

    _conversion->___xxtofl
    ___fltol->___xxtofl
    ___flmul->___xxtofl
    ___fladd->___xxtofl

Critical Paths under _isr in COMMON

    None.

Critical Paths under _main in BANK0

    _main->_conversion
    _conversion->___fltol
    ___fltol->___fladd
    ___flmul->___xxtofl
    ___fladd->___flmul

Critical Paths under _isr in BANK0

    None.

Critical Paths under _main in BANK1

    None.

Critical Paths under _isr in BANK1

    None.

Critical Paths under _main in BANK3

    None.

Critical Paths under _isr in BANK3

    None.

Critical Paths under _main in BANK2

    None.

Critical Paths under _isr in BANK2

    None.

Call Graph Tables:

 ---------------------------------------------------------------------------------
 (Depth) Function   	        Calls       Base Space   Used Autos Params    Refs
 ---------------------------------------------------------------------------------
 (0) _main                                                 2     2      0    6649
                                             65 BANK0      2     2      0
                         _conversion
                           _initUART
                              _print
                              _setup
                           _setupADC
 ---------------------------------------------------------------------------------
 (1) _setupADC                                             1     1      0       0
                                              2 COMMON     1     1      0
 ---------------------------------------------------------------------------------
 (1) _setup                                                0     0      0       0
 ---------------------------------------------------------------------------------
 (2) _print                                                2     2      0     210
                                              2 COMMON     2     2      0
 ---------------------------------------------------------------------------------
 (1) _initUART                                             0     0      0       0
 ---------------------------------------------------------------------------------
 (1) _conversion                                           2     0      2    6439
                                             63 BANK0      2     0      2
                            ___fladd
                            ___flmul
                            ___fltol
                           ___xxtofl
 ---------------------------------------------------------------------------------
 (2) ___xxtofl                                            14    10      4     398
                                              2 COMMON     8     4      4
                                              0 BANK0      6     6      0
 ---------------------------------------------------------------------------------
 (2) ___fltol                                             11     7      4     305
                                             52 BANK0     11     7      4
                            ___fladd (ARG)
                            ___flmul (ARG)
                           ___xxtofl (ARG)
 ---------------------------------------------------------------------------------
 (2) ___flmul                                             26    18      8    3353
                                              6 BANK0     26    18      8
                          __Umul8_16
                           ___xxtofl (ARG)
 ---------------------------------------------------------------------------------
 (3) __Umul8_16                                            9     7      2     980
                                              2 COMMON     4     2      2
                                              0 BANK0      5     5      0
 ---------------------------------------------------------------------------------
 (2) ___fladd                                             20    12      8    2262
                                             32 BANK0     20    12      8
                            ___flmul (ARG)
                           ___xxtofl (ARG)
 ---------------------------------------------------------------------------------
 Estimated maximum stack depth 3
 ---------------------------------------------------------------------------------
 (Depth) Function   	        Calls       Base Space   Used Autos Params    Refs
 ---------------------------------------------------------------------------------
 (4) _isr                                                  2     2      0       0
                                              0 COMMON     2     2      0
 ---------------------------------------------------------------------------------
 Estimated maximum stack depth 4
 ---------------------------------------------------------------------------------

 Call Graph Graphs:

 _main (ROOT)
   _conversion
     ___fladd
       ___flmul (ARG)
         __Umul8_16
         ___xxtofl (ARG)
       ___xxtofl (ARG)
     ___flmul
     ___fltol
       ___fladd (ARG)
       ___flmul (ARG)
       ___xxtofl (ARG)
     ___xxtofl
   _initUART
   _print
   _setup
   _setupADC

 _isr (ROOT)

 Address spaces:
Name               Size   Autos  Total    Cost      Usage
BITCOMMON            E      0       0       0        0.0%
EEDATA             100      0       0       0        0.0%
NULL                 0      0       0       0        0.0%
CODE                 0      0       0       0        0.0%
COMMON               E      A       C       1       85.7%
BITSFR0              0      0       0       1        0.0%
SFR0                 0      0       0       1        0.0%
BITSFR1              0      0       0       2        0.0%
SFR1                 0      0       0       2        0.0%
STACK                0      0       0       2        0.0%
ABS                  0      0      54       3        0.0%
BITBANK0            50      0       0       4        0.0%
BITSFR3              0      0       0       4        0.0%
SFR3                 0      0       0       4        0.0%
BANK0               50     43      48       5       90.0%
BITSFR2              0      0       0       5        0.0%
SFR2                 0      0       0       5        0.0%
BITBANK1            50      0       0       6        0.0%
BANK1               50      0       0       7        0.0%
BITBANK3            60      0       0       8        0.0%
BANK3               60      0       0       9        0.0%
BITBANK2            60      0       0      10        0.0%
BANK2               60      0       0      11        0.0%
DATA                 0      0      54      12        0.0%


Microchip Technology PIC Macro Assembler V2.36 build 20220127204148 
Symbol Table                                                                                   Wed Apr 19 21:28:45 2023

           print@palabra 0073                        pc 0002                       l70 06DC  
                     l73 06F0                       l91 0F89                       l94 0F6B  
                     l79 0732                       l88 07FB                       l97 0FFF  
                     fsr 0004      __Umul8_16@word_mpld 0022                      l102 0F8C  
                    l106 0FAA                      l510 0576                      l600 07D7  
                    l506 0552                      l602 07E9                      l516 0598  
                    l527 05F8                      l519 05D6                      l631 066E  
                    l528 0604                      l385 07AB                      l625 0629  
                    l378 07C0                      l491 045E                      l627 06C0  
                    l388 07C0                      l485 03E0                      l581 037C  
                    l638 068A                      l639 0696                      l489 0487  
                    l593 0370                      l498 0604                      l587 02E8  
                    _isr 0F4C                      fsr0 0004             ___flmul@aexp 0034  
           ___flmul@bexp 0039             ___flmul@sign 0033             ___flmul@temp 003E  
           ___flmul@prod 003A             ___fltol@exp1 005E                     l1300 03C8  
                   l1310 03E6                     l1302 03CD                     l1230 0745  
                   l1400 055A                     l1320 03FA                     l1312 03EA  
                   l1304 03D5                     l1240 0771                     l1232 0752  
                   l1410 0575                     l1402 055F                     l1330 040E  
                   l1322 03FE                     l1314 03EE                     l1306 03D6  
                   l1242 0779                     l1412 057A                     l1420 0586  
                   l1340 0422                     l1332 0412                     l1324 0402  
                   l1316 03F2                     l1308 03D8                     l1260 07A0  
                   l1252 0787                     l1244 077B                     l1236 075B  
                   l1414 057D                     l1406 0568                     l1422 058A  
                   l1350 0462                     l1342 0426                     l1334 0416  
                   l1326 0406                     l1318 03F6                     l1270 038A  
                   l1262 07B0                     l1246 077F                     l1254 0799  
                   l1238 0770                     l1440 05D2                     l1432 059D  
                   l1424 058B                     l1416 057F                     l1408 0571  
                   l1360 047B                     l1352 046B                     l1336 041A  
                   l1328 040A                     l1344 042A                     l1280 03A1  
                   l1272 038E                     l1264 07B5                     l1600 0608  
                   l1450 05EE                     l1442 05DB                     l1434 05A2  
                   l1426 058F                     l1418 0584                     l1370 0499  
                   l1354 046D                     l1362 047F                     l1346 042B  
                   l1338 041E                     l1290 03B7                     l1282 03A2  
                   l1274 038F                     l1266 037D                     l1602 060D  
                   l1452 05F2                     l1444 05E0                     l1436 05B0  
                   l1428 0595                     l1380 04C3                     l1372 04B0  
                   l1364 048B                     l1356 0471                     l1348 0442  
                   l1292 03B8                     l1276 0394                     l1284 03A4  
                   l1268 0384                     l1620 0657                     l1612 063A  
                   l1604 0611                     l1454 05F4                     l1446 05E8  
                   l1438 05B4                     l1390 04EC                     l1382 04C7  
                   l1374 04B4                     l1366 0490                     l1358 0472  
                   l1294 03BE                     l1286 03AC                     l1278 0399  
                   l1630 068E                     l1622 0665                     l1614 063F  
                   l1606 0621                     l1456 05FF                     l1448 05ED  
                   l1392 052A                     l1384 04C8                     l1376 04B8  
                   l1296 03C2                     l1288 03B1                     l1800 0127  
                   l1640 06B8                     l1632 0698                     l1624 0675  
                   l1616 064C                     l1608 0631                     l1458 0603  
                   l1394 0530                     l1386 04D1                     l1378 04C1  
                   l1298 03C3                     l1730 07C4                     l1810 0189  
                   l1802 0143                     l1634 06AE                     l1626 0680  
                   l1618 0653                     l1650 07F5                     l1396 0535  
                   l1388 04D6                     l1740 07E5                     l1732 07C6  
                   l1820 0219                     l1812 01A6                     l1804 014C  
                   l1636 06B3                     l1628 0684                     l1652 07F6  
                   l1644 07EA                     l1660 0F72                     l1900 06FB  
                   l1398 0544                     l1734 07CD                     l1830 02AB  
                   l1822 0246                     l1814 01BF                     l1806 015C  
                   l1750 002D                     l1638 06B7                     l1654 07F7  
                   l1646 07F0                     l1670 0F84                     l1662 0F78  
                   l1910 071B                     l1902 0704                     l1736 07D1  
                   l1832 02B4                     l1840 02C8                     l1824 026C  
                   l1816 01DC                     l1808 0179                     l1760 0042  
                   l1752 002E                     l1744 001C                     l1680 0F67  
                   l1672 0F5C                     l1656 07F8                     l1648 07F4  
                   l1664 0F7B                     l1920 073B                     l1912 0721  
                   l1904 0708                     l1738 07E0                     l1842 02CC  
                   l1834 02B8                     l1826 0294                     l1818 0209  
                   l1770 005A                     l1762 004A                     l1754 0033  
                   l1746 0023                     l1682 0F6A                     l1674 0F60  
                   l1690 0F9E                     l1666 0F7C                     l1658 0F6C  
                   l1914 0726                     l1906 070F                     l1860 031D  
                   l1852 02ED                     l1844 02CD                     l1836 02B9  
                   l1828 029D                     l1780 0076                     l1772 005F  
                   l1764 004F                     l1756 0038                     l1748 0029  
                   l1676 0F61                     l1684 0F8B                     l1668 0F83  
                   l1916 072C                     l1908 0715                     l1870 0354  
                   l1854 02F2                     l1862 0323                     l1846 02D1  
                   l1838 02C2                     l1790 0099                     l1782 007B  
                   l1774 0064                     l1766 0055                     l1758 0040  
                   l1678 0F64                     l1686 0F92                     l1918 0738  
                   l1880 0374                     l1872 0356                     l1864 0330  
                   l1856 0300                     l1848 02E5                     l1792 00A6  
                   l1784 0080                     l1776 006C                     l1768 0059  
                   l1688 0F9A                     l1874 0364                     l1866 033B  
                   l1858 0304                     l1794 00C3                     l1778 006E  
                   l1890 06D6                     l1876 0368                     l1868 034A  
                   l1796 00DF                     l1788 0089                     l1884 0FAB  
                   l1892 06E2                     l1878 0369                     l1798 010B  
                   l1894 06E6                     l1886 06C1                     l1896 06ED  
                   l1888 06D0                     l1898 06F4                     ?_isr 0070  
                   STR_1 083C                     STR_2 0852                     STR_3 0806  
                   STR_4 0821                     STR_5 0864                     u1300 07B0  
                   u1220 0752                     u1301 07AF                     u1221 0751  
                   u1310 07B5                     u1230 0769                     u1311 07B4  
                   u1400 03EA                     u1320 038E                     u1240 077F  
                   u1401 03E9                     u1321 038D                     u1241 077E  
                   u1410 0442                     u1330 0394                     u1250 0786  
                   u2210 0674                     u1411 0441                     u1331 0393  
                   u1251 0785                     u1235 0764                     u2211 0673  
                   u1420 044D                     u1340 0399                     u2300 0FAA  
                   u1501 04A2                     u1421 044B                     u1341 0398  
                   u2205 0666                     u2301 0FA9                     u1510 04B4  
                   u1502 04A9                     u1430 044E                     u1350 03B7  
                   u1270 0798                     u2230 0684                     u2150 060D  
                   u1511 04B3                     u1503 04B0                     u1415 043E  
                   u1351 03B6                     u1271 0797                     u2231 0683  
                   u2151 060C                     u1600 055F                     u1520 04B8  
                   u1440 0462                     u1360 03C2                     u2400 0033  
                   u1280 079F                     u2240 068A                     u2160 0611  
                   u1601 055E                     u1521 04B7                     u1441 0461  
                   u1361 03C1                     u2401 0032                     u1281 079E  
                   u1265 0788                     u2241 0689                     u2225 0679  
                   u2161 0610                     u1530 04C7                     u1450 0471  
                   u1370 03C8                     u2410 0038                     u2250 068E  
                   u2170 0631                     u1531 04C6                     u1451 0470  
                   u1371 03C7                     u2411 0037                     u2251 068D  
                   u2171 0630                     u1700 05B4                     u1620 0575  
                   u1380 03CD                     u2420 0059                     u2260 06A3  
                   u1701 05B3                     u1621 0574                     u1381 03CC  
                   u2501 0135                     u2421 0058                     u1710 05C3  
                   u1630 057A                     u1550 04EC                     u1470 0487  
                   u1390 03E6                     u2502 013C                     u2430 005F  
                   u2270 06B3                     u2190 0652                     u1631 0579  
                   u1615 056A                     u1551 04EB                     u1471 0486  
                   u1391 03E5                     u2503 0143                     u2431 005E  
                   u1295 07A2                     u2271 06B2                     u2191 0651  
                   u1720 05D2                     u1640 0584                     u1480 048B  
                   u2360 07D1                     u2600 027A                     u2440 0064  
                   u2280 06B7                     u1721 05D1                     u1641 0583  
                   u1561 0503                     u1553 04E8                     u1545 04CA  
                   u1481 048A                     u1465 0474                     u2361 07D0  
                   u2521 016B                     u2441 0063                     u2281 06B6  
                   u2265 069E                     u2185 0644                     u1730 05DB  
                   u1650 058A                     u1570 0517                     u1562 0504  
                   u1490 0490                     u2522 0172                     u2450 007B  
                   u2290 0F92                     u1731 05DA                     u1715 05BE  
                   u1651 0589                     u1571 0518                     u1563 0509  
                   u1491 048F                     u2611 0286                     u2531 0198  
                   u2523 0179                     u2515 0145                     u2451 007A  
                   u2291 0F91                     u1740 05E0                     u1660 058F  
                   u1580 0535                     u1572 051D                     u1564 050A  
                   u2380 07E5                     u2700 02F2                     u2612 028D  
                   u2532 019F                     u2460 0080                     u1741 05DF  
                   u1661 058E                     u1581 0534                     u1573 051E  
                   u1565 050F                     u2381 07E4                     u2701 02F1  
                   u2613 0294                     u2605 0275                     u2533 01A6  
                   u2461 007F                     u1750 05ED                     u1670 0595  
                   u1590 055A                     u1566 0510                     u2710 0304  
                   u2390 002D                     u1751 05EC                     u1671 0594  
                   u1591 0559                     u2375 07D8                     u2711 0303  
                   u2551 01CE                     u2471 00D1                     u2391 002C  
                   u1760 05F2                     u1680 059C                     u2720 0313  
                   u2640 02B8                     u2552 01D5                     u2472 00D8  
                   u2800 0738                     u1761 05F1                     u1681 059B  
                   u2641 02B7                     u2625 0296                     u2561 01FB  
                   u2553 01DC                     u2545 01A8                     u2481 00ED  
                   u2473 00DF                     u2801 0737                     u1770 0603  
                   u1690 05A2                     u2730 0330                     u2562 0202  
                   u2482 00F4                     u1771 0602                     u1691 05A1  
                   u2731 032F                     u2635 02AD                     u2571 0228  
                   u2563 0209                     u2491 0119                     u2483 00FB  
                   u2740 034A                     u2660 02CC                     u2580 0252  
                   u2572 022F                     u2492 0120                     u2741 0349  
                   u2725 030E                     u2661 02CB                     u2573 0236  
                   u2493 0127                     u2750 0368                     u2670 02D1  
                   u2751 0367                     u2735 032C                     u2671 02D0  
                   u2655 02BB                     u2591 025E                     u2680 02E5  
                   u2592 0265                     u2760 06E2                     u2745 0346  
                   u2681 02E4                     u2593 026C                     u2585 024D  
                   u2817 06EA                     u2761 06E1                     u2690 02EC  
                   u2770 06F4                     u2691 02EB                     u2827 070C  
                   u2771 06F3                     u2780 071B                     u2837 0F86  
                   u2781 071A                     u2790 072C                     u2791 072B  
                   i1l64 0F55                     _TXIF 0064                     _main 06C1  
                   _loop 007A                     btemp 007E                     start 000C  
                  ??_isr 0070            ___fltol@sign1 005D          __end_of___fladd 0605  
                  ?_main 0070          __end_of___flmul 037D          __end_of___fltol 07C1  
                  _RCREG 001A                    _SPBRG 0099                    _PORTB 0006  
                  _TRISB 0086                    _TXREG 0019                    _setup 07EA  
                  _print 0F8A                    pclath 000A                    status 0003  
                  wtemp0 007E          __initialization 000F             __end_of_main 0745  
      conversion@voltaje 005F                   ??_main 0061                   _ADRESH 001E  
                 _CCPR1L 0015                   ?_setup 0070                   ?_print 0070  
                 i1l1176 0F4C                   i1l1178 0F52                   u113_20 0F52  
                 u113_21 0F51         __end_of___xxtofl 06C1                ??___fladd 0048  
              ??___flmul 002E                ??___fltol 0058         __end_of_initUART 0F6C  
       __end_of_setupADC 0F8A                   saved_w 007E             _ADC_voltaje1 0065  
           ___xxtofl@arg 0022             ___xxtofl@exp 0021             ___xxtofl@val 0072  
__end_of__initialization 0018               ___fltol@f1 0054           __pcstackCOMMON 0070  
          __end_of_setup 07FC            __end_of_print 0FAB                  ??_setup 0072  
                ??_print 0072               __pbssBANK0 0063        __end_of__Umul8_16 07EA  
             __pmaintext 06C1               __pintentry 0004                ?___xxtofl 0072  
             __stringtab 0800                ?_initUART 0070               _conversion 0FAB  
              ?_setupADC 0070                  ___fladd 037D                  ___flmul 001C  
                ___fltol 0745                _ANSELbits 0188               _equivalent 0063  
                __ptext1 0F6C                  __ptext2 07EA                  __ptext3 0F8A  
                __ptext4 0F5C                  __ptext5 0FAB                  __ptext6 0605  
                __ptext7 0745                  __ptext8 001C                  __ptext9 07C1  
             ??___xxtofl 0076     end_of_initialization 0018               ??_initUART 0072  
             ??_setupADC 0072                _RCSTAbits 0018                _PORTBbits 0006  
            ___fladd@grs 0053            ___xxtofl@sign 0020                _TRISAbits 0085  
            ___flmul@grs 0035              ?_conversion 005F                _TXSTAbits 0098  
    start_initialization 000F              __end_of_isr 0F5C                __Umul8_16 07C1  
              ___fladd@a 0044                ___fladd@b 0040                ___flmul@a 002A  
              ___flmul@b 0026              __pbssCOMMON 007A                ___latbits 0002  
          __pcstackBANK0 0020                 ?___fladd 0040                 ?___flmul 0026  
               ?___fltol 0054               ?__Umul8_16 0072                __pstrings 0800  
      interrupt_function 0004                 _PIE1bits 008C                 _PIR1bits 000C  
             _ADCON0bits 001F              __stringbase 0805               _ADCON1bits 009F  
        _option_selected 0067             ??_conversion 007A              ??__Umul8_16 0074  
     __end_of__stringtab 0806       __end_of_conversion 1000                 ___xxtofl 0605  
               __ptext10 037D                 __ptext11 0F4C                 _initUART 0F5C  
               _setupADC 0F6C               _INTCONbits 000B                 intlevel1 0000  
              stringcode 0800               _OSCCONbits 008F   __Umul8_16@multiplicand 0072  
               stringdir 0800                 stringtab 0800            ___fladd@signs 0050  
           ___fladd@aexp 0051             ___fladd@bexp 0052     __Umul8_16@multiplier 0024  
      __Umul8_16@product 0020  
